#SYMBOLS
Index	Identifier	Type	Flag	Data	Size	RefCount
0	__Wait_7qG2_ms_7qG2_000_inline_LedRed	5	1	0	4	6
1	__rotate_angle3	6	1	4	4	7
2	__rotate_theAngle1	5	1	8	4	2
3	__signed_stack_001LedGreen	6	1	12	4	2
4	__signed_stack_007MotorAB	6	1	16	4	2
5	__signed_stack_001MotorABInverse	6	1	20	4	8
6	__SRNTmpVal	6	1	24	4	4
7	__signed_stack_006MotorAB	6	1	28	4	2
8	__Wait_7qG2_ms_7qG2_000_inline_LedGreen	5	1	32	4	8
9	__signed_stack_004Drive	6	1	36	4	4
10	__signed_stack_004MotorAB	6	1	40	4	2
11	__signed_stack_003Drive	6	1	44	4	4
12	__TextOutMutex	9	0	48	4	46
13	__unsigned_stack_002Drive	5	1	52	4	2
14	__unsigned_stack_001Drive	5	1	56	4	2
15	__signed_stack_005MotorAB	6	1	60	4	2
16	__ResetSensorMutex	9	0	64	4	18
17	__MRMutex	9	0	68	4	2
18	__rotate_theAngle3	5	1	72	4	2
19	__signed_stack_002MotorB	6	1	76	4	2
20	__signed_stack_003MotorB	6	1	80	4	2
21	__signed_stack_001MotorRealPosition	6	1	84	4	12
22	__signed_stack_004MotorB	6	1	88	4	2
23	__signed_stack_001main	6	1	92	4	12
24	__signed_stack_002MotorRealPosition	6	1	96	4	12
25	__unsigned_stack_001LedGreen	5	1	100	4	2
26	__signed_stack_004MotorABInverse	6	1	104	4	4
27	__signed_stack_002MotorABInverse	6	1	108	4	6
28	__signed_stack_003MotorABInverse	6	1	112	4	4
29	__signed_stack_007MotorABInverse	6	1	116	4	4
30	__signed_stack_001MotorB	6	1	120	4	2
31	__signed_stack_005MotorABInverse	6	1	124	4	4
32	__signed_stack_006MotorABInverse	6	1	128	4	4
33	__D0MotorB	6	1	132	4	2
34	__D0MotorRealPosition	6	1	136	4	21
35	__signed_stack_002main	6	1	140	4	6
36	__D0LedGreen	6	1	144	4	6
37	__signed_stack_001BTCheck	6	1	148	4	4
38	__Wait_7qG2_ms_7qG2_000_inline_Drive	5	1	152	4	4
39	__signed_stack_001MotorA	6	1	156	4	2
40	__D0Drive	6	1	160	4	81
41	__rotateMutex1	9	0	164	4	10
42	__D0MotorA	6	1	168	4	2
43	__MWMutex	9	0	172	4	4
44	__rotateMutex0	9	0	176	4	10
45	__D0MotorABInverse	6	1	180	4	12
46	__D0main	6	1	184	4	15
47	__rotate_angle0	6	1	188	4	6
48	__D0MotorAB	6	1	192	4	2
49	__IOMWMutex	9	0	196	4	2
50	__signed_stack_001Drive	6	1	200	4	50
51	__signed_stack_002Drive	6	1	204	4	32
52	__signed_stack_001MotorAB	6	1	208	4	2
53	__D0BTCheck	6	1	212	4	4
54	__PointOutMutex	9	0	216	4	6
55	__signed_stack_003MotorAB	6	1	220	4	2
56	__Wait_7qG2_ms_7qG2_000_inline_BTCheck	5	1	224	4	2
57	__signed_stack_002MotorAB	6	1	228	4	2
58	__RBtnMutex	9	0	232	4	2
59	__KeepAliveMutex	9	0	236	4	2
60	__signed_stack_002MotorA	6	1	240	4	2
61	__signed_stack_003MotorA	6	1	244	4	2
62	__signed_stack_004MotorA	6	1	248	4	2
63	__rotate_angle1	6	1	252	4	6
64	__rotate_theAngle0	5	1	256	4	2
65	__signed_stack_002BTCheck	6	1	260	4	2
66	__BTCheck_7qG2_conn_7qG2_000	4	1	264	2	2
67	__constVal200	4	0	266	2	6
68	__MotorRealPosition_7qG2_AP_7qG2_000	4	1	268	2	4
69	__rotate_OldRotCount1	4	1	270	2	2
70	__LedGreen_7qG2_i_7qG2_000	4	1	272	2	4
71	__constVal128	4	0	274	2	8
72	__MotorRealPosition_7qG2_BP_7qG2_000	4	1	276	2	4
73	__Drive_7qG2_B_7qG2_000	4	1	278	2	2
74	__Drive_7qG2_C_7qG2_000	4	1	280	2	2
75	__constVal23040	4	0	282	2	1
76	__Drive_7qG2_A_7qG2_000	4	1	284	2	2
77	__rotate_RotCount0	4	1	286	2	4
78	__rotate_OldRotCount0	4	1	288	2	2
79	__rotate_RotCount1	4	1	290	2	4
80	B_Memory	4	1	292	2	6
81	RA	4	1	294	2	11
82	RB	4	1	296	2	8
83	__rotate_RotCount3	4	1	298	2	4
84	__rotate_OldRotCount3	4	1	300	2	2
85	A_Memory	4	1	302	2	6
86	realTurn	4	1	304	2	10
87	CheckTime	4	0	306	2	1
88	FlashTime	4	0	308	2	2
89	Tolerance	4	0	310	2	4
90	power	4	0	312	2	5
91	ack	4	0	314	2	1
92	endProcess	4	0	316	2	1
93	__zfMotorABInverse	1	1	318	1	7
94	__zfMotorRealPosition	1	1	319	1	3
95	__LedRed_Spawner_return	1	1	320	1	1
96	__MotorAB_Spawner_return	1	1	321	1	1
97	__MotorABInverse_Spawner_return	1	1	322	1	1
98	__MotorRealPosition_return	1	1	323	1	8
99	__ClearLine_7qG2_line_7qG2_000_inline_MotorRealPosition	1	1	324	1	4
100	__LedGreen_Spawner_return	1	1	325	1	2
101	__MotorA_Spawner_return	1	1	326	1	1
102	__Drive_Spawner_return	1	1	327	1	1
103	__SetSensor_7qG2_port_7qG2_000_inline_main	1	1	328	1	4
104	__constVal24	2	0	329	1	1
105	__MotorB_Spawner_return	1	1	330	1	1
106	__ClearLine_7qG2_line_7qG2_000_inline_Drive	1	1	331	1	4
107	____initialize_global_data_return	1	1	332	1	3
108	__SetSensorColorBlue_7qG2_port_7qG2_000_inline_LedRed	1	1	333	1	4
109	__SetSensorColorNone_7qG2_port_7qG2_000_inline_LedRed	1	1	334	1	8
110	__constVal17	2	0	335	1	4
111	A_Done	1	1	336	1	5
112	B_Done	1	1	337	1	5
113	free	1	0	338	1	3
114	__SetSensorColorRed_7qG2_port_7qG2_000_inline_LedRed	1	1	339	1	4
115	__BTCheck_return	1	1	340	1	3
116	__constVal96	2	0	341	1	3
117	__constVal63	2	0	342	1	2
118	__SetSensorColorBlue_7qG2_port_7qG2_000_inline_LedGreen	1	1	343	1	4
119	__SetSensorColorNone_7qG2_port_7qG2_000_inline_LedGreen	1	1	344	1	8
120	__SetSensorColorGreen_7qG2_port_7qG2_000_inline_LedGreen	1	1	345	1	4
121	__rotate_power3	1	1	346	1	6
122	__rotate_theTurnPct1	2	1	347	1	4
123	__rotate_firstPort3	1	1	348	1	5
124	__rotate_stop3	1	1	349	1	4
125	__rotate_sync3	1	1	350	1	4
126	__rotate_thePower1	2	1	351	1	4
127	__rotate_theRVP1	1	1	352	1	3
128	__rotate_theRS1	1	1	353	1	3
129	__rotate_theRVI1	1	1	354	1	3
130	__rotate_rs1	1	1	355	1	2
131	__rotate_theRVD1	1	1	356	1	3
132	__rotate_theRVD3	1	1	357	1	4
133	__rotate_theRVI3	1	1	358	1	4
134	__rotate_rs3	1	1	359	1	2
135	__rotate_theTurnPct3	2	1	360	1	4
136	__rotate_thePower3	2	1	361	1	4
137	__rotate_theRVP3	1	1	362	1	4
138	__rotate_theUF3	1	1	363	1	6
139	__rotate_turnpct3	2	1	364	1	5
140	__rotate_theOM3	1	1	365	1	7
141	__rotate_theRS3	1	1	366	1	3
142	__rotate_theRM3	1	1	367	1	4
143	__rotate_theRM1	1	1	368	1	4
144	__rotate_theRM0	1	1	369	1	4
145	__rotate_theOM0	1	1	370	1	7
146	__rotate_theRS0	1	1	371	1	3
147	__rotate_theRVI0	1	1	372	1	3
148	__rotate_theRVP0	1	1	373	1	3
149	__rotate_theUF0	1	1	374	1	6
150	__rotate_firstPort0	1	1	375	1	5
151	__rotate_power0	1	1	376	1	5
152	__rotate_sync0	1	1	377	1	3
153	__rotate_turnpct0	2	1	378	1	4
154	__rotate_stop0	1	1	379	1	3
155	__rotate_stop1	1	1	380	1	3
156	__rotate_sync1	1	1	381	1	3
157	__rotate_turnpct1	2	1	382	1	4
158	__rotate_theOM1	1	1	383	1	7
159	__rotate_theUF1	1	1	384	1	6
160	__rotate_firstPort1	1	1	385	1	5
161	__rotate_rs0	1	1	386	1	2
162	__rotate_theRVD0	1	1	387	1	3
163	__rotate_thePower0	2	1	388	1	4
164	__rotate_power1	1	1	389	1	5
165	__rotate_theTurnPct0	2	1	390	1	4
166	__constVal2	2	0	391	1	2
167	__constVal10	2	0	392	1	2
168	__constValNeg100	2	0	393	1	1
169	__ResetSensorTmp	1	1	394	1	2
170	____ResetSensorSubroutine_return	1	1	395	1	11
171	__constVal15	2	0	396	1	1
172	__PFTmp	1	1	397	1	1
173	__zfDrive	1	1	398	1	39
174	__zfLedGreen	1	1	399	1	6
175	__zfmain	1	1	400	1	10
176	__constVal16	2	0	401	1	2
177	__constVal14	2	0	402	1	1
178	__zfBTCheck	1	1	403	1	3
179	____RotateMotor1_sign_tmp	2	1	404	1	4
180	____RotateMotor1_return	1	1	405	1	4
181	____RotateMotor3_return	1	1	406	1	5
182	____RotateMotor0_return	1	1	407	1	4
183	__constVal50	2	0	408	1	3
184	__constVal1	2	0	409	1	21
185	__constVal32	2	0	410	1	19
186	____RotateMotor0_sign_tmp	2	1	411	1	4
187	__constVal0	2	1	412	1	42
188	__constVal3	2	0	413	1	3
189	____RotateMotor3_sign_tmp	2	1	414	1	4
190	__constVal5	2	0	415	1	1
191	__ResetSensorPort	1	1	416	1	11
192	__IOMWArgs	8	0	4	16	4
193	__IOMWArgs.Result	2	1	420	1	4
194	__IOMWArgs.ModuleName	7	0	422	4	4
195	__IOMWArgs.ModuleName.ModuleName_type	1	0	0	1	0
196	__IOMWArgs.Offset	3	1	424	2	4
197	__IOMWArgs.Buffer	7	0	426	4	4
198	__IOMWArgs.Buffer.Buffer_type	1	0	0	1	0
199	__PointOutArgs	8	0	3	12	12
200	__PointOutArgs.Result	2	1	428	1	12
201	__PointOutArgs.Location	8	0	2	4	12
202	__PointOutArgs.Location.X	4	1	432	2	12
203	__PointOutArgs.Location.Y	4	1	434	2	12
204	__PointOutArgs.Options	5	1	436	4	12
205	__RBtnArgs	8	0	5	8	4
206	__RBtnArgs.Result	2	1	440	1	4
207	__RBtnArgs.Index	1	1	441	1	4
208	__RBtnArgs.Pressed	1	1	442	1	4
209	__RBtnArgs.Count	1	1	443	1	4
210	__RBtnArgs.Reset	1	1	444	1	4
211	__TextOutArgs	8	0	4	16	134
212	__TextOutArgs.Result	2	1	448	1	134
213	__TextOutArgs.Location	8	0	2	4	134
214	__TextOutArgs.Location.X	4	1	452	2	134
215	__TextOutArgs.Location.Y	4	1	454	2	134
216	__TextOutArgs.Text	7	0	456	4	134
217	__TextOutArgs.Text.Text_type	1	0	0	1	0
218	__TextOutArgs.Options	5	1	460	4	134
219	__KeepAliveArgs	8	0	1	4	2
220	__KeepAliveArgs.Result	5	1	464	4	2
221	__MRArgs	8	0	4	8	5
222	__MRArgs.Result	2	1	468	1	5
223	__MRArgs.QueueID	1	1	469	1	5
224	__MRArgs.Remove	1	1	470	1	5
225	__MRArgs.Message	7	0	472	4	5
226	__MRArgs.Message.Message_type	1	0	0	1	0
227	__MWArgs	8	0	3	8	8
228	__MWArgs.Result	2	1	476	1	8
229	__MWArgs.QueueID	1	1	477	1	8
230	__MWArgs.Message	7	0	478	4	8
231	__MWArgs.Message.Message_type	1	0	0	1	0
232	__CBTCSArgs	8	0	2	4	4
233	__CBTCSArgs.Result	2	1	480	1	4
234	__CBTCSArgs.Connection	1	1	481	1	4
235	__constStr0019	7	0	482	4	1
236	__constStr0019.__constStr0019_type	1	1	0	1	0
237	__strbufMotorRealPosition	7	0	484	4	16
238	__strbufMotorRealPosition.__strbufMotorRealPosition_type	1	0	0	1	0
239	__strretvalDrive	7	0	486	4	10
240	__strretvalDrive.__strretvalDrive_type	1	0	0	1	0
241	__strtmpbufMotorRealPosition	7	0	488	4	2
242	__strtmpbufMotorRealPosition.__strtmpbufMotorRealPosition_type	1	0	0	1	0
243	__constStr0018	7	0	490	4	1
244	__constStr0018.__constStr0018_type	1	1	0	1	0
245	__OUT_AB	7	0	492	4	6
246	__OUT_AB.__OUT_AB_type	1	0	0	1	0
247	__strbufDrive	7	0	494	4	43
248	__strbufDrive.__strbufDrive_type	1	0	0	1	0
249	__constStr0024	7	0	496	4	1
250	__constStr0024.__constStr0024_type	1	1	0	1	0
251	__constStr0025	7	0	498	4	1
252	__constStr0025.__constStr0025_type	1	1	0	1	0
253	__strbufmain	7	0	500	4	6
254	__strbufmain.__strbufmain_type	1	0	0	1	0
255	__rotate_ports0	7	0	502	4	7
256	__rotate_ports0.__rotate_ports0_type	1	0	0	1	0
257	__constStr0021	7	0	504	4	1
258	__constStr0021.__constStr0021_type	1	1	0	1	0
259	__constStr0020	7	0	506	4	1
260	__constStr0020.__constStr0020_type	1	1	0	1	0
261	__constStr0023	7	0	508	4	1
262	__constStr0023.__constStr0023_type	1	1	0	1	0
263	__constStr0022	7	0	510	4	1
264	__constStr0022.__constStr0022_type	1	1	0	1	0
265	__constStr0017	7	0	512	4	1
266	__constStr0017.__constStr0017_type	1	1	0	1	0
267	__constStr0010	7	0	514	4	4
268	__constStr0010.__constStr0010_type	1	1	0	1	0
269	__rotate_ports1	7	0	516	4	7
270	__rotate_ports1.__rotate_ports1_type	1	0	0	1	0
271	__Drive_7qG2_in_7qG2_000	7	0	518	4	5
272	__Drive_7qG2_in_7qG2_000.__Drive_7qG2_in_7qG2_000_type	1	0	0	1	0
273	__constStr0011	7	0	520	4	3
274	__constStr0011.__constStr0011_type	1	1	0	1	0
275	__MotorRealPosition_7qG2_Port_7qG2_000	7	0	522	4	5
276	__MotorRealPosition_7qG2_Port_7qG2_000.__MotorRealPosition_7qG2_Port_7qG2_000_type	1	0	0	1	0
277	__BlankLine	7	0	524	4	4
278	__BlankLine.__BlankLine_type	1	0	0	1	0
279	__rotate_ports3	7	0	526	4	8
280	__rotate_ports3.__rotate_ports3_type	1	0	0	1	0
281	__constStr0009	7	0	528	4	1
282	__constStr0009.__constStr0009_type	1	1	0	1	0
283	__IOMWFlattenBuf	7	0	530	4	2
284	__IOMWFlattenBuf.__IOMWFlattenBuf_type	1	0	0	1	0
285	__constStr0014	7	0	532	4	1
286	__constStr0014.__constStr0014_type	1	1	0	1	0
287	__strretvalMotorRealPosition	7	0	534	4	8
288	__strretvalMotorRealPosition.__strretvalMotorRealPosition_type	1	0	0	1	0
289	__constStr0016	7	0	536	4	1
290	__constStr0016.__constStr0016_type	1	1	0	1	0
291	__constStr0015	7	0	538	4	1
292	__constStr0015.__constStr0015_type	1	1	0	1	0
293	__strbufBTCheck	7	0	540	4	2
294	__strbufBTCheck.__strbufBTCheck_type	1	0	0	1	0
295	__ArrHelper__Drive_244_1	7	0	542	4	4
296	__ArrHelper__Drive_244_1.__ArrHelper__Drive_244_1_type	1	0	0	1	0
297	__ArrHelper__Drive_244_0	7	0	544	4	4
298	__ArrHelper__Drive_244_0.__ArrHelper__Drive_244_0_type	1	0	0	1	0
299	__constStr0013	7	0	546	4	1
300	__constStr0013.__constStr0013_type	1	1	0	1	0
301	__constStr0012	7	0	548	4	1
302	__constStr0012.__constStr0012_type	1	1	0	1	0
#SOURCES
Clump	Line	PC	Source
0	252	0	#line 252 "D:\NXT Programok\Slave1.nxc"
0	253	0		subcall __initialize_global_data, ____initialize_global_data_return
0	252	2	#line 252 "D:\NXT Programok\Slave1.nxc"
0	252	2	#line 252 "D:\NXT Programok\Slave1.nxc"
0	253	2		set __BTCheck_7qG2_conn_7qG2_000, 0
0	252	5	#line 252 "D:\NXT Programok\Slave1.nxc"
0	253	5	#line 253 "D:\NXT Programok\Slave1.nxc"
0	254	5		subcall BTCheck, __BTCheck_return
0	253	7	#line 253 "D:\NXT Programok\Slave1.nxc"
0	253	7	#line 253 "D:\NXT Programok\Slave1.nxc"
0	254	7		set __signed_stack_001main, 0
0	253	10	#line 253 "D:\NXT Programok\Slave1.nxc"
0	253	10	#line 253 "D:\NXT Programok\Slave1.nxc"
0	254	10		set __signed_stack_002main, 56
0	253	13	#line 253 "D:\NXT Programok\Slave1.nxc"
0	253	13	#line 253 "D:\NXT Programok\Slave1.nxc"
0	254	13		strcat __strbufmain, __constStr0022
0	254	17	#line 254 "D:\NXT Programok\Slave1.nxc"
0	255	17		acquire __TextOutMutex
0	254	18	#line 254 "D:\NXT Programok\Slave1.nxc"
0	255	18		mov __TextOutArgs.Location.X, __signed_stack_001main
0	254	21	#line 254 "D:\NXT Programok\Slave1.nxc"
0	255	21		mov __TextOutArgs.Location.Y, __signed_stack_002main
0	254	24	#line 254 "D:\NXT Programok\Slave1.nxc"
0	255	24		set __TextOutArgs.Options, 0
0	254	27	#line 254 "D:\NXT Programok\Slave1.nxc"
0	255	27		mov __TextOutArgs.Text, __strbufmain
0	254	29	#line 254 "D:\NXT Programok\Slave1.nxc"
0	255	29		syscall 13, __TextOutArgs
0	254	32	#line 254 "D:\NXT Programok\Slave1.nxc"
0	255	32		mov __D0main, __TextOutArgs.Result
0	254	35	#line 254 "D:\NXT Programok\Slave1.nxc"
0	255	35		release __TextOutMutex
0	254	36	#line 254 "D:\NXT Programok\Slave1.nxc"
0	254	36	#line 254 "D:\NXT Programok\Slave1.nxc"
0	255	36		set __signed_stack_001main, 0
0	254	39	#line 254 "D:\NXT Programok\Slave1.nxc"
0	254	39	#line 254 "D:\NXT Programok\Slave1.nxc"
0	255	39		set __signed_stack_002main, 48
0	254	42	#line 254 "D:\NXT Programok\Slave1.nxc"
0	254	42	#line 254 "D:\NXT Programok\Slave1.nxc"
0	255	42		strcat __strbufmain, __constStr0023
0	255	46	#line 255 "D:\NXT Programok\Slave1.nxc"
0	256	46		acquire __TextOutMutex
0	255	47	#line 255 "D:\NXT Programok\Slave1.nxc"
0	256	47		mov __TextOutArgs.Location.X, __signed_stack_001main
0	255	50	#line 255 "D:\NXT Programok\Slave1.nxc"
0	256	50		mov __TextOutArgs.Location.Y, __signed_stack_002main
0	255	53	#line 255 "D:\NXT Programok\Slave1.nxc"
0	256	53		set __TextOutArgs.Options, 0
0	255	56	#line 255 "D:\NXT Programok\Slave1.nxc"
0	256	56		mov __TextOutArgs.Text, __strbufmain
0	255	58	#line 255 "D:\NXT Programok\Slave1.nxc"
0	256	58		syscall 13, __TextOutArgs
0	255	61	#line 255 "D:\NXT Programok\Slave1.nxc"
0	256	61		mov __D0main, __TextOutArgs.Result
0	255	64	#line 255 "D:\NXT Programok\Slave1.nxc"
0	256	64		release __TextOutMutex
0	255	65	#line 255 "D:\NXT Programok\Slave1.nxc"
0	255	65	#line 255 "D:\NXT Programok\Slave1.nxc"
0	256	65		set __signed_stack_001main, 0
0	255	68	#line 255 "D:\NXT Programok\Slave1.nxc"
0	255	68	#line 255 "D:\NXT Programok\Slave1.nxc"
0	256	68		set __signed_stack_002main, 40
0	255	71	#line 255 "D:\NXT Programok\Slave1.nxc"
0	255	71	#line 255 "D:\NXT Programok\Slave1.nxc"
0	256	71		strcat __strbufmain, __constStr0024
0	258	75	#line 258 "D:\NXT Programok\Slave1.nxc"
0	259	75		acquire __TextOutMutex
0	258	76	#line 258 "D:\NXT Programok\Slave1.nxc"
0	259	76		mov __TextOutArgs.Location.X, __signed_stack_001main
0	258	79	#line 258 "D:\NXT Programok\Slave1.nxc"
0	259	79		mov __TextOutArgs.Location.Y, __signed_stack_002main
0	258	82	#line 258 "D:\NXT Programok\Slave1.nxc"
0	259	82		set __TextOutArgs.Options, 0
0	258	85	#line 258 "D:\NXT Programok\Slave1.nxc"
0	259	85		mov __TextOutArgs.Text, __strbufmain
0	258	87	#line 258 "D:\NXT Programok\Slave1.nxc"
0	259	87		syscall 13, __TextOutArgs
0	258	90	#line 258 "D:\NXT Programok\Slave1.nxc"
0	259	90		mov __D0main, __TextOutArgs.Result
0	258	93	#line 258 "D:\NXT Programok\Slave1.nxc"
0	259	93		release __TextOutMutex
0	258	94	#line 258 "D:\NXT Programok\Slave1.nxc"
0	258	94	#line 258 "D:\NXT Programok\Slave1.nxc"
0	259	94		set __signed_stack_001main, 3
0	258	97	#line 258 "D:\NXT Programok\Slave1.nxc"
0	258	97	#line 258 "D:\NXT Programok\Slave1.nxc"
0	259	97		set __D0main, 1
0	258	100	#line 258 "D:\NXT Programok\Slave1.nxc"
0	259	100		acquire __RBtnMutex
0	258	101	#line 258 "D:\NXT Programok\Slave1.nxc"
0	259	101		mov __RBtnArgs.Index, __signed_stack_001main
0	258	104	#line 258 "D:\NXT Programok\Slave1.nxc"
0	259	104		mov __RBtnArgs.Reset, __D0main
0	258	107	#line 258 "D:\NXT Programok\Slave1.nxc"
0	259	107		syscall 20, __RBtnArgs
0	258	110	#line 258 "D:\NXT Programok\Slave1.nxc"
0	259	110		mov __D0main, __RBtnArgs.Pressed
0	258	113	#line 258 "D:\NXT Programok\Slave1.nxc"
0	259	113		release __RBtnMutex
0	258	114	#line 258 "D:\NXT Programok\Slave1.nxc"
0	259	114		mov __signed_stack_001main, __D0main
0	258	116	#line 258 "D:\NXT Programok\Slave1.nxc"
0	259	116		set __D0main, 1
0	258	119	#line 258 "D:\NXT Programok\Slave1.nxc"
0	259	119		cmp 4, __zfmain, __signed_stack_001main, __D0main
0	258	123	#line 258 "D:\NXT Programok\Slave1.nxc"
0	258	123	#line 258 "D:\NXT Programok\Slave1.nxc"
0	259	123		not __D0main, __zfmain
0	259	126	#line 259 "D:\NXT Programok\Slave1.nxc"
0	260	126		tst 5, __zfmain, __D0main
0	259	129	#line 259 "D:\NXT Programok\Slave1.nxc"
0	260	129		brtst 4, __NXC_Label_880, __zfmain
0	259	132	#line 259 "D:\NXT Programok\Slave1.nxc"
0	259	132	#line 259 "D:\NXT Programok\Slave1.nxc"
0	260	132		jmp __NXC_Label_879
0	259	134	#line 259 "D:\NXT Programok\Slave1.nxc"
0	6069	134	#line 6069 "NXCDefs.h"
0	6070	134	#pragma macro 6
0	6070	134		acquire __PointOutMutex
0	6070	135		mov __PointOutArgs.Location.X, __constVal200
0	6070	138		mov __PointOutArgs.Location.Y, __constVal200
0	6070	141		mov __PointOutArgs.Options, __constVal1
0	6070	143		syscall 14, __PointOutArgs
0	6070	146		release __PointOutMutex
0	9025	147	#line 9025 "NXCDefs.h"
0	6069	147	#line 6069 "NXCDefs.h"
0	260	147	#line 260 "D:\NXT Programok\Slave1.nxc"
0	263	147	#line 263 "D:\NXT Programok\Slave1.nxc"
0	264	147		subcall __Drive_Spawner, __Drive_Spawner_return
0	263	149	#line 263 "D:\NXT Programok\Slave1.nxc"
0	263	149	#line 263 "D:\NXT Programok\Slave1.nxc"
0	264	149		set __SetSensor_7qG2_port_7qG2_000_inline_main, 0
0	263	152	#line 263 "D:\NXT Programok\Slave1.nxc"
0	263	152	#line 263 "D:\NXT Programok\Slave1.nxc"
0	3707	152	#line 3707 "NXCDefs.h"
0	3708	152		setin __constVal1, __SetSensor_7qG2_port_7qG2_000_inline_main, 0
0	3709	156		setin __constVal32, __SetSensor_7qG2_port_7qG2_000_inline_main, 1
0	3710	160	#pragma macro 4
0	3710	160		acquire __ResetSensorMutex
0	3710	161		mov __ResetSensorPort, __SetSensor_7qG2_port_7qG2_000_inline_main
0	3710	163		subcall __ResetSensorSubroutine, ____ResetSensorSubroutine_return
0	3710	166		release __ResetSensorMutex
0	9050	167	#line 9050 "NXCDefs.h"
0	3711	167	#line 3711 "NXCDefs.h"
0	264	167	#line 264 "D:\NXT Programok\Slave1.nxc"
0	264	167	#line 264 "D:\NXT Programok\Slave1.nxc"
0	265	167		getin __signed_stack_001main, __constVal0, 4
0	264	171	#line 264 "D:\NXT Programok\Slave1.nxc"
0	264	171	#line 264 "D:\NXT Programok\Slave1.nxc"
0	265	171		set __D0main, 1
0	264	174	#line 264 "D:\NXT Programok\Slave1.nxc"
0	265	174		cmp 4, __zfmain, __signed_stack_001main, __D0main
0	264	178	#line 264 "D:\NXT Programok\Slave1.nxc"
0	264	178	#line 264 "D:\NXT Programok\Slave1.nxc"
0	265	178		not __D0main, __zfmain
0	265	181	#line 265 "D:\NXT Programok\Slave1.nxc"
0	266	181		tst 5, __zfmain, __D0main
0	265	184	#line 265 "D:\NXT Programok\Slave1.nxc"
0	266	184		brtst 4, __NXC_Label_892, __zfmain
0	265	187	#line 265 "D:\NXT Programok\Slave1.nxc"
0	265	187	#line 265 "D:\NXT Programok\Slave1.nxc"
0	266	187		jmp __NXC_Label_891
0	265	189	#line 265 "D:\NXT Programok\Slave1.nxc"
0	266	189	#line 266 "D:\NXT Programok\Slave1.nxc"
0	267	189	#pragma macro 7
0	267	189		setout __OUT_AB, 2, __constVal0, 1, __constVal3, 8, __constVal0, 6, __constVal32, 7, __constVal0, 5, __constVal0, 10, __constVal96, 11, __constVal32, 12, __constVal32, 0, __constVal24
0	9080	212	#line 9080 "D:\NXT Programok\Slave1.nxc"
0	266	212	#line 266 "D:\NXT Programok\Slave1.nxc"
0	8851	212	#line 8851 "NXCDefs.h"
0	8852	212	#pragma macro 7
0	8852	212		acquire __IOMWMutex
0	8852	213		mov __IOMWArgs.ModuleName, __constStr0025
0	8852	215		mov __IOMWArgs.Offset, __constVal0
0	8852	217		flatten __IOMWFlattenBuf, __constVal23040
0	8852	220		strtoarr __IOMWArgs.Buffer, __IOMWFlattenBuf
0	8852	223		syscall 33, __IOMWArgs
0	8852	226		release __IOMWMutex
0	9083	227	#line 9083 "NXCDefs.h"
0	8851	227	#line 8851 "NXCDefs.h"
0	8851	227	#line 8851 "NXCDefs.h"
0	268	227	#line 268 "D:\NXT Programok\Slave1.nxc"
0	269	227		exit -1, -1
1	4476	0		brtst 4, __rotate_Done0, __rotate_angle0
1	4477	3		set ____RotateMotor0_sign_tmp, 0
1	4477	6		brtst EQ, __sign_0, __rotate_angle0
1	4477	9		set ____RotateMotor0_sign_tmp, -1
1	4477	12		brtst LT, __sign_0, __rotate_angle0
1	4477	15		set ____RotateMotor0_sign_tmp, 1
1	4477	18	__sign_0:	mov __rotate_thePower0, ____RotateMotor0_sign_tmp
1	4478	20		abs __rotate_theAngle0, __rotate_angle0
1	4479	23		mul __rotate_thePower0, __rotate_thePower0, __rotate_power0
1	4481	27		set __rotate_theUF0, 23
1	4482	30		brtst 4, __rotate_NoSync0, __rotate_sync0
1	4483	33		set __rotate_theOM0, 7
1	4484	36		set __rotate_theRM0, 2
1	4485	39		mov __rotate_theTurnPct0, __rotate_turnpct0
1	4486	41		brtst 4, __rotate_Start0, __rotate_theTurnPct0
1	4487	44		add __rotate_theUF0, __rotate_theUF0, __constVal32
1	4488	48		jmp __rotate_Start0
1	4490	50		set __rotate_theOM0, 3
1	4491	53		set __rotate_theRM0, 0
1	4492	56		set __rotate_theTurnPct0, 0
1	4494	59		set __rotate_theRS0, 32
1	4495	62		setout __rotate_ports0, 1, __rotate_theOM0, 8, __rotate_theRM0, 5, __rotate_theAngle0, 6, __rotate_theRS0, 10, __rotate_theRVP0, 11, __rotate_theRVI0, 12, __rotate_theRVD0, 2, __rotate_thePower0, 7, __rotate_turnpct0, 0, __rotate_theUF0
1	4498	85		index __rotate_firstPort0, __rotate_ports0, 65535
1	4500	89		getout __rotate_power0, __rotate_firstPort0, 2
1	4501	93		brtst 4, __rotate_doneRunning0, __rotate_power0
1	4502	96		getout __rotate_rs0, __rotate_firstPort0, 6
1	4503	100		brcmp 4, __rotate_Running0, __rotate_rs0, __constVal32
1	4505	104		brtst 4, __rotate_Reset0, __rotate_stop0
1	4507	107		set __rotate_theOM0, 7
1	4508	110		set __rotate_theUF0, 7
1	4509	113		setout __rotate_ports0, 1, __rotate_theOM0, 8, __constVal1, 6, __rotate_theRS0, 2, __constVal0, 5, __constVal0, 0, __rotate_theUF0
1	4511	128		getout __rotate_RotCount0, __rotate_firstPort0, 14
1	4513	132		mov __rotate_OldRotCount0, __rotate_RotCount0
1	4514	134		wait2 NA, __constVal50
1	4516	137		getout __rotate_RotCount0, __rotate_firstPort0, 14
1	4517	141		brcmp 5, __rotate_Stabilize0, __rotate_OldRotCount0, __rotate_RotCount0
1	4518	145		set __rotate_theOM0, 4
1	4519	148		setout __rotate_ports0, 8, __rotate_theRM0, 6, __constVal0, 1, __rotate_theOM0, 0, __constVal1
1	4522	159		brtst 4, __rotate_Done0, __rotate_theTurnPct0
1	4523	162		setout __rotate_ports0, 0, __constVal32
1	4525	167		subret ____RotateMotor0_return
2	4529	0		brtst 4, __rotate_Done1, __rotate_angle1
2	4530	3		set ____RotateMotor1_sign_tmp, 0
2	4530	6		brtst EQ, __sign_1, __rotate_angle1
2	4530	9		set ____RotateMotor1_sign_tmp, -1
2	4530	12		brtst LT, __sign_1, __rotate_angle1
2	4530	15		set ____RotateMotor1_sign_tmp, 1
2	4530	18	__sign_1:	mov __rotate_thePower1, ____RotateMotor1_sign_tmp
2	4531	20		abs __rotate_theAngle1, __rotate_angle1
2	4532	23		mul __rotate_thePower1, __rotate_thePower1, __rotate_power1
2	4534	27		set __rotate_theUF1, 23
2	4535	30		brtst 4, __rotate_NoSync1, __rotate_sync1
2	4536	33		set __rotate_theOM1, 7
2	4537	36		set __rotate_theRM1, 2
2	4538	39		mov __rotate_theTurnPct1, __rotate_turnpct1
2	4539	41		brtst 4, __rotate_Start1, __rotate_theTurnPct1
2	4540	44		add __rotate_theUF1, __rotate_theUF1, __constVal32
2	4541	48		jmp __rotate_Start1
2	4543	50		set __rotate_theOM1, 3
2	4544	53		set __rotate_theRM1, 0
2	4545	56		set __rotate_theTurnPct1, 0
2	4547	59		set __rotate_theRS1, 32
2	4548	62		setout __rotate_ports1, 1, __rotate_theOM1, 8, __rotate_theRM1, 5, __rotate_theAngle1, 6, __rotate_theRS1, 10, __rotate_theRVP1, 11, __rotate_theRVI1, 12, __rotate_theRVD1, 2, __rotate_thePower1, 7, __rotate_turnpct1, 0, __rotate_theUF1
2	4551	85		index __rotate_firstPort1, __rotate_ports1, 65535
2	4553	89		getout __rotate_power1, __rotate_firstPort1, 2
2	4554	93		brtst 4, __rotate_doneRunning1, __rotate_power1
2	4555	96		getout __rotate_rs1, __rotate_firstPort1, 6
2	4556	100		brcmp 4, __rotate_Running1, __rotate_rs1, __constVal32
2	4558	104		brtst 4, __rotate_Reset1, __rotate_stop1
2	4560	107		set __rotate_theOM1, 7
2	4561	110		set __rotate_theUF1, 7
2	4562	113		setout __rotate_ports1, 1, __rotate_theOM1, 8, __constVal1, 6, __rotate_theRS1, 2, __constVal0, 5, __constVal0, 0, __rotate_theUF1
2	4564	128		getout __rotate_RotCount1, __rotate_firstPort1, 14
2	4566	132		mov __rotate_OldRotCount1, __rotate_RotCount1
2	4567	134		wait2 NA, __constVal50
2	4569	137		getout __rotate_RotCount1, __rotate_firstPort1, 14
2	4570	141		brcmp 5, __rotate_Stabilize1, __rotate_OldRotCount1, __rotate_RotCount1
2	4571	145		set __rotate_theOM1, 4
2	4572	148		setout __rotate_ports1, 8, __rotate_theRM1, 6, __constVal0, 1, __rotate_theOM1, 0, __constVal1
2	4575	159		brtst 4, __rotate_Done1, __rotate_theTurnPct1
2	4576	162		setout __rotate_ports1, 0, __constVal32
2	4578	167		subret ____RotateMotor1_return
3	4635	0		brtst 4, __rotate_Done3, __rotate_angle3
3	4636	3		set ____RotateMotor3_sign_tmp, 0
3	4636	6		brtst EQ, __sign_3, __rotate_angle3
3	4636	9		set ____RotateMotor3_sign_tmp, -1
3	4636	12		brtst LT, __sign_3, __rotate_angle3
3	4636	15		set ____RotateMotor3_sign_tmp, 1
3	4636	18	__sign_3:	mov __rotate_thePower3, ____RotateMotor3_sign_tmp
3	4637	20		abs __rotate_theAngle3, __rotate_angle3
3	4638	23		mul __rotate_thePower3, __rotate_thePower3, __rotate_power3
3	4640	27		set __rotate_theUF3, 23
3	4641	30		brtst 4, __rotate_NoSync3, __rotate_sync3
3	4642	33		set __rotate_theOM3, 7
3	4643	36		set __rotate_theRM3, 2
3	4644	39		mov __rotate_theTurnPct3, __rotate_turnpct3
3	4645	41		brtst 4, __rotate_Start3, __rotate_theTurnPct3
3	4646	44		add __rotate_theUF3, __rotate_theUF3, __constVal32
3	4647	48		jmp __rotate_Start3
3	4649	50		set __rotate_theOM3, 3
3	4650	53		set __rotate_theRM3, 0
3	4651	56		set __rotate_theTurnPct3, 0
3	4653	59		set __rotate_theRS3, 32
3	4654	62		setout __rotate_ports3, 1, __rotate_theOM3, 8, __rotate_theRM3, 5, __rotate_theAngle3, 6, __rotate_theRS3, 10, __rotate_theRVP3, 11, __rotate_theRVI3, 12, __rotate_theRVD3, 2, __rotate_thePower3, 7, __rotate_turnpct3, 0, __rotate_theUF3
3	4657	85		index __rotate_firstPort3, __rotate_ports3, 65535
3	4659	89		getout __rotate_power3, __rotate_firstPort3, 2
3	4660	93		brtst 4, __rotate_doneRunning3, __rotate_power3
3	4661	96		getout __rotate_rs3, __rotate_firstPort3, 6
3	4662	100		brcmp 4, __rotate_Running3, __rotate_rs3, __constVal32
3	4664	104		brtst 4, __rotate_Reset3, __rotate_stop3
3	4666	107		set __rotate_theOM3, 7
3	4667	110		set __rotate_theUF3, 7
3	4668	113		setout __rotate_ports3, 1, __rotate_theOM3, 8, __constVal1, 6, __rotate_theRS3, 2, __constVal0, 5, __constVal0, 0, __rotate_theUF3
3	4670	128		getout __rotate_RotCount3, __rotate_firstPort3, 14
3	4672	132		mov __rotate_OldRotCount3, __rotate_RotCount3
3	4673	134		wait2 NA, __constVal50
3	4675	137		getout __rotate_RotCount3, __rotate_firstPort3, 14
3	4676	141		brcmp 5, __rotate_Stabilize3, __rotate_OldRotCount3, __rotate_RotCount3
3	4677	145		set __rotate_theOM3, 4
3	4678	148		setout __rotate_ports3, 8, __rotate_theRM3, 6, __constVal0, 1, __rotate_theOM3, 0, __constVal1
3	4681	159		brtst 4, __rotate_Done3, __rotate_theTurnPct3
3	4682	162		setout __rotate_ports3, 0, __constVal32
3	4684	167		subret ____RotateMotor3_return
4	4885	0		setin __constVal1, __ResetSensorPort, 5
4	4887	4		getin __ResetSensorTmp, __ResetSensorPort, 5
4	4888	8		brtst 5, __SensorStillInvalid, __ResetSensorTmp
4	4889	11		subret ____ResetSensorSubroutine_return
5	34	0	#line 34 "D:\NXT Programok\Slave1.nxc"
5	35	0		set __SetSensorColorBlue_7qG2_port_7qG2_000_inline_LedRed, 3
5	34	3	#line 34 "D:\NXT Programok\Slave1.nxc"
5	3832	3	#line 3832 "NXCDefs.h"
5	3833	3	#pragma macro 6
5	3833	3		setin __constVal16, __SetSensorColorBlue_7qG2_port_7qG2_000_inline_LedRed, 0
5	3833	7		setin __constVal128, __SetSensorColorBlue_7qG2_port_7qG2_000_inline_LedRed, 1
5	3833	11		acquire __ResetSensorMutex
5	3833	12		mov __ResetSensorPort, __SetSensorColorBlue_7qG2_port_7qG2_000_inline_LedRed
5	3833	14		subcall __ResetSensorSubroutine, ____ResetSensorSubroutine_return
5	3833	17		release __ResetSensorMutex
5	6803	18	#line 6803 "NXCDefs.h"
5	3832	18	#line 3832 "NXCDefs.h"
5	35	18	#line 35 "D:\NXT Programok\Slave1.nxc"
5	35	18	#line 35 "D:\NXT Programok\Slave1.nxc"
5	36	18		mov __Wait_7qG2_ms_7qG2_000_inline_LedRed, FlashTime
5	35	20	#line 35 "D:\NXT Programok\Slave1.nxc"
5	7921	20	#line 7921 "NXCDefs.h"
5	7922	20		wait2 NA, __Wait_7qG2_ms_7qG2_000_inline_LedRed
5	7921	23	#line 7921 "NXCDefs.h"
5	36	23	#line 36 "D:\NXT Programok\Slave1.nxc"
5	36	23	#line 36 "D:\NXT Programok\Slave1.nxc"
5	37	23		set __SetSensorColorNone_7qG2_port_7qG2_000_inline_LedRed, 3
5	36	26	#line 36 "D:\NXT Programok\Slave1.nxc"
5	3842	26	#line 3842 "NXCDefs.h"
5	3843	26	#pragma macro 6
5	3843	26		setin __constVal17, __SetSensorColorNone_7qG2_port_7qG2_000_inline_LedRed, 0
5	3843	30		setin __constVal128, __SetSensorColorNone_7qG2_port_7qG2_000_inline_LedRed, 1
5	3843	34		acquire __ResetSensorMutex
5	3843	35		mov __ResetSensorPort, __SetSensorColorNone_7qG2_port_7qG2_000_inline_LedRed
5	3843	37		subcall __ResetSensorSubroutine, ____ResetSensorSubroutine_return
5	3843	40		release __ResetSensorMutex
5	6831	41	#line 6831 "NXCDefs.h"
5	3842	41	#line 3842 "NXCDefs.h"
5	37	41	#line 37 "D:\NXT Programok\Slave1.nxc"
5	37	41	#line 37 "D:\NXT Programok\Slave1.nxc"
5	38	41		set __Wait_7qG2_ms_7qG2_000_inline_LedRed, 50
5	37	44	#line 37 "D:\NXT Programok\Slave1.nxc"
5	7921	44	#line 7921 "NXCDefs.h"
5	7922	44		wait2 NA, __Wait_7qG2_ms_7qG2_000_inline_LedRed
5	7921	47	#line 7921 "NXCDefs.h"
5	38	47	#line 38 "D:\NXT Programok\Slave1.nxc"
5	38	47	#line 38 "D:\NXT Programok\Slave1.nxc"
5	39	47		set __SetSensorColorRed_7qG2_port_7qG2_000_inline_LedRed, 3
5	38	50	#line 38 "D:\NXT Programok\Slave1.nxc"
5	3812	50	#line 3812 "NXCDefs.h"
5	3813	50	#pragma macro 6
5	3813	50		setin __constVal14, __SetSensorColorRed_7qG2_port_7qG2_000_inline_LedRed, 0
5	3813	54		setin __constVal128, __SetSensorColorRed_7qG2_port_7qG2_000_inline_LedRed, 1
5	3813	58		acquire __ResetSensorMutex
5	3813	59		mov __ResetSensorPort, __SetSensorColorRed_7qG2_port_7qG2_000_inline_LedRed
5	3813	61		subcall __ResetSensorSubroutine, ____ResetSensorSubroutine_return
5	3813	64		release __ResetSensorMutex
5	6855	65	#line 6855 "NXCDefs.h"
5	3812	65	#line 3812 "NXCDefs.h"
5	39	65	#line 39 "D:\NXT Programok\Slave1.nxc"
5	39	65	#line 39 "D:\NXT Programok\Slave1.nxc"
5	40	65		set __Wait_7qG2_ms_7qG2_000_inline_LedRed, 1000
5	39	68	#line 39 "D:\NXT Programok\Slave1.nxc"
5	7921	68	#line 7921 "NXCDefs.h"
5	7922	68		wait2 NA, __Wait_7qG2_ms_7qG2_000_inline_LedRed
5	7921	71	#line 7921 "NXCDefs.h"
5	40	71	#line 40 "D:\NXT Programok\Slave1.nxc"
5	40	71	#line 40 "D:\NXT Programok\Slave1.nxc"
5	41	71		set __SetSensorColorNone_7qG2_port_7qG2_000_inline_LedRed, 3
5	40	74	#line 40 "D:\NXT Programok\Slave1.nxc"
5	3842	74	#line 3842 "NXCDefs.h"
5	3843	74	#pragma macro 6
5	3843	74		setin __constVal17, __SetSensorColorNone_7qG2_port_7qG2_000_inline_LedRed, 0
5	3843	78		setin __constVal128, __SetSensorColorNone_7qG2_port_7qG2_000_inline_LedRed, 1
5	3843	82		acquire __ResetSensorMutex
5	3843	83		mov __ResetSensorPort, __SetSensorColorNone_7qG2_port_7qG2_000_inline_LedRed
5	3843	85		subcall __ResetSensorSubroutine, ____ResetSensorSubroutine_return
5	3843	88		release __ResetSensorMutex
5	6875	89	#line 6875 "NXCDefs.h"
5	3842	89	#line 3842 "NXCDefs.h"
5	42	89	#line 42 "D:\NXT Programok\Slave1.nxc"
5	43	89		exit -1, -1
6	45	0	#line 45 "D:\NXT Programok\Slave1.nxc"
6	46	0		set __SetSensorColorBlue_7qG2_port_7qG2_000_inline_LedGreen, 3
6	45	3	#line 45 "D:\NXT Programok\Slave1.nxc"
6	3832	3	#line 3832 "NXCDefs.h"
6	3833	3	#pragma macro 6
6	3833	3		setin __constVal16, __SetSensorColorBlue_7qG2_port_7qG2_000_inline_LedGreen, 0
6	3833	7		setin __constVal128, __SetSensorColorBlue_7qG2_port_7qG2_000_inline_LedGreen, 1
6	3833	11		acquire __ResetSensorMutex
6	3833	12		mov __ResetSensorPort, __SetSensorColorBlue_7qG2_port_7qG2_000_inline_LedGreen
6	3833	14		subcall __ResetSensorSubroutine, ____ResetSensorSubroutine_return
6	3833	17		release __ResetSensorMutex
6	6892	18	#line 6892 "NXCDefs.h"
6	3832	18	#line 3832 "NXCDefs.h"
6	46	18	#line 46 "D:\NXT Programok\Slave1.nxc"
6	46	18	#line 46 "D:\NXT Programok\Slave1.nxc"
6	47	18		mov __Wait_7qG2_ms_7qG2_000_inline_LedGreen, FlashTime
6	46	20	#line 46 "D:\NXT Programok\Slave1.nxc"
6	7921	20	#line 7921 "NXCDefs.h"
6	7922	20		wait2 NA, __Wait_7qG2_ms_7qG2_000_inline_LedGreen
6	7921	23	#line 7921 "NXCDefs.h"
6	47	23	#line 47 "D:\NXT Programok\Slave1.nxc"
6	47	23	#line 47 "D:\NXT Programok\Slave1.nxc"
6	48	23		set __SetSensorColorNone_7qG2_port_7qG2_000_inline_LedGreen, 3
6	47	26	#line 47 "D:\NXT Programok\Slave1.nxc"
6	3842	26	#line 3842 "NXCDefs.h"
6	3843	26	#pragma macro 6
6	3843	26		setin __constVal17, __SetSensorColorNone_7qG2_port_7qG2_000_inline_LedGreen, 0
6	3843	30		setin __constVal128, __SetSensorColorNone_7qG2_port_7qG2_000_inline_LedGreen, 1
6	3843	34		acquire __ResetSensorMutex
6	3843	35		mov __ResetSensorPort, __SetSensorColorNone_7qG2_port_7qG2_000_inline_LedGreen
6	3843	37		subcall __ResetSensorSubroutine, ____ResetSensorSubroutine_return
6	3843	40		release __ResetSensorMutex
6	6920	41	#line 6920 "NXCDefs.h"
6	3842	41	#line 3842 "NXCDefs.h"
6	48	41	#line 48 "D:\NXT Programok\Slave1.nxc"
6	48	41	#line 48 "D:\NXT Programok\Slave1.nxc"
6	49	41		set __Wait_7qG2_ms_7qG2_000_inline_LedGreen, 50
6	48	44	#line 48 "D:\NXT Programok\Slave1.nxc"
6	7921	44	#line 7921 "NXCDefs.h"
6	7922	44		wait2 NA, __Wait_7qG2_ms_7qG2_000_inline_LedGreen
6	7921	47	#line 7921 "NXCDefs.h"
6	49	47	#line 49 "D:\NXT Programok\Slave1.nxc"
6	50	47	#line 50 "D:\NXT Programok\Slave1.nxc"
6	51	47		set __LedGreen_7qG2_i_7qG2_000, 0
6	50	50	#line 50 "D:\NXT Programok\Slave1.nxc"
6	50	50	#line 50 "D:\NXT Programok\Slave1.nxc"
6	51	50		mov __unsigned_stack_001LedGreen, free
6	50	52	#line 50 "D:\NXT Programok\Slave1.nxc"
6	51	52	#line 51 "D:\NXT Programok\Slave1.nxc"
6	52	52		set __D0LedGreen, 1
6	51	55	#line 51 "D:\NXT Programok\Slave1.nxc"
6	52	55		cmp 4, __zfLedGreen, __unsigned_stack_001LedGreen, __D0LedGreen
6	51	59	#line 51 "D:\NXT Programok\Slave1.nxc"
6	52	59		mov __D0LedGreen, __zfLedGreen
6	53	62	#line 53 "D:\NXT Programok\Slave1.nxc"
6	54	62		brtst 4, __NXC_Label_514, __zfLedGreen
6	53	65	#line 53 "D:\NXT Programok\Slave1.nxc"
6	54	65		mov __signed_stack_001LedGreen, __LedGreen_7qG2_i_7qG2_000
6	53	67	#line 53 "D:\NXT Programok\Slave1.nxc"
6	53	67	#line 53 "D:\NXT Programok\Slave1.nxc"
6	54	67		set __D0LedGreen, 0
6	53	70	#line 53 "D:\NXT Programok\Slave1.nxc"
6	54	70		cmp 4, __zfLedGreen, __signed_stack_001LedGreen, __D0LedGreen
6	53	74	#line 53 "D:\NXT Programok\Slave1.nxc"
6	54	74		mov __D0LedGreen, __zfLedGreen
6	54	77	#line 54 "D:\NXT Programok\Slave1.nxc"
6	55	77		brtst 4, __NXC_Label_519, __zfLedGreen
6	54	80	#line 54 "D:\NXT Programok\Slave1.nxc"
6	55	80		set __SetSensorColorGreen_7qG2_port_7qG2_000_inline_LedGreen, 3
6	54	83	#line 54 "D:\NXT Programok\Slave1.nxc"
6	3822	83	#line 3822 "NXCDefs.h"
6	3823	83	#pragma macro 6
6	3823	83		setin __constVal15, __SetSensorColorGreen_7qG2_port_7qG2_000_inline_LedGreen, 0
6	3823	87		setin __constVal128, __SetSensorColorGreen_7qG2_port_7qG2_000_inline_LedGreen, 1
6	3823	91		acquire __ResetSensorMutex
6	3823	92		mov __ResetSensorPort, __SetSensorColorGreen_7qG2_port_7qG2_000_inline_LedGreen
6	3823	94		subcall __ResetSensorSubroutine, ____ResetSensorSubroutine_return
6	3823	97		release __ResetSensorMutex
6	6983	98	#line 6983 "NXCDefs.h"
6	3822	98	#line 3822 "NXCDefs.h"
6	55	98	#line 55 "D:\NXT Programok\Slave1.nxc"
6	55	98	#line 55 "D:\NXT Programok\Slave1.nxc"
6	56	98		set __Wait_7qG2_ms_7qG2_000_inline_LedGreen, 100
6	55	101	#line 55 "D:\NXT Programok\Slave1.nxc"
6	7921	101	#line 7921 "NXCDefs.h"
6	7922	101		wait2 NA, __Wait_7qG2_ms_7qG2_000_inline_LedGreen
6	7921	104	#line 7921 "NXCDefs.h"
6	56	104	#line 56 "D:\NXT Programok\Slave1.nxc"
6	56	104	#line 56 "D:\NXT Programok\Slave1.nxc"
6	57	104		set __LedGreen_7qG2_i_7qG2_000, 1
6	56	107	#line 56 "D:\NXT Programok\Slave1.nxc"
6	56	107	#line 56 "D:\NXT Programok\Slave1.nxc"
6	58	107	#line 58 "D:\NXT Programok\Slave1.nxc"
6	59	107		jmp __NXC_Label_526
6	58	109	#line 58 "D:\NXT Programok\Slave1.nxc"
6	59	109		set __SetSensorColorNone_7qG2_port_7qG2_000_inline_LedGreen, 3
6	58	112	#line 58 "D:\NXT Programok\Slave1.nxc"
6	3842	112	#line 3842 "NXCDefs.h"
6	3843	112	#pragma macro 6
6	3843	112		setin __constVal17, __SetSensorColorNone_7qG2_port_7qG2_000_inline_LedGreen, 0
6	3843	116		setin __constVal128, __SetSensorColorNone_7qG2_port_7qG2_000_inline_LedGreen, 1
6	3843	120		acquire __ResetSensorMutex
6	3843	121		mov __ResetSensorPort, __SetSensorColorNone_7qG2_port_7qG2_000_inline_LedGreen
6	3843	123		subcall __ResetSensorSubroutine, ____ResetSensorSubroutine_return
6	3843	126		release __ResetSensorMutex
6	7013	127	#line 7013 "NXCDefs.h"
6	3842	127	#line 3842 "NXCDefs.h"
6	59	127	#line 59 "D:\NXT Programok\Slave1.nxc"
6	59	127	#line 59 "D:\NXT Programok\Slave1.nxc"
6	60	127		set __Wait_7qG2_ms_7qG2_000_inline_LedGreen, 1000
6	59	130	#line 59 "D:\NXT Programok\Slave1.nxc"
6	7921	130	#line 7921 "NXCDefs.h"
6	7922	130		wait2 NA, __Wait_7qG2_ms_7qG2_000_inline_LedGreen
6	7921	133	#line 7921 "NXCDefs.h"
6	60	133	#line 60 "D:\NXT Programok\Slave1.nxc"
6	60	133	#line 60 "D:\NXT Programok\Slave1.nxc"
6	61	133		set __LedGreen_7qG2_i_7qG2_000, 0
6	60	136	#line 60 "D:\NXT Programok\Slave1.nxc"
6	60	136	#line 60 "D:\NXT Programok\Slave1.nxc"
6	64	136	#line 64 "D:\NXT Programok\Slave1.nxc"
6	65	136	#line 65 "D:\NXT Programok\Slave1.nxc"
6	66	136		jmp __NXC_Label_513
6	65	138	#line 65 "D:\NXT Programok\Slave1.nxc"
6	66	138		exit -1, -1
7	74	0	#line 74 "D:\NXT Programok\Slave1.nxc"
7	75	0	#pragma macro 5
7	75	0		mov __CBTCSArgs.Connection, __BTCheck_7qG2_conn_7qG2_000
7	75	3		syscall 28, __CBTCSArgs
7	7093	6	#line 7093 "D:\NXT Programok\Slave1.nxc"
7	74	6	#line 74 "D:\NXT Programok\Slave1.nxc"
7	75	6		not __signed_stack_001BTCheck, __CBTCSArgs.Result
7	74	9	#line 74 "D:\NXT Programok\Slave1.nxc"
7	74	9	#line 74 "D:\NXT Programok\Slave1.nxc"
7	75	9		set __D0BTCheck, 0
7	74	12	#line 74 "D:\NXT Programok\Slave1.nxc"
7	75	12		cmp 4, __zfBTCheck, __signed_stack_001BTCheck, __D0BTCheck
7	74	16	#line 74 "D:\NXT Programok\Slave1.nxc"
7	75	16		mov __D0BTCheck, __zfBTCheck
7	75	18	#line 75 "D:\NXT Programok\Slave1.nxc"
7	76	18		brtst 4, __NXC_Label_540, __zfBTCheck
7	75	21	#line 75 "D:\NXT Programok\Slave1.nxc"
7	76	21		set __signed_stack_001BTCheck, 0
7	75	24	#line 75 "D:\NXT Programok\Slave1.nxc"
7	75	24	#line 75 "D:\NXT Programok\Slave1.nxc"
7	76	24		set __signed_stack_002BTCheck, 56
7	75	27	#line 75 "D:\NXT Programok\Slave1.nxc"
7	75	27	#line 75 "D:\NXT Programok\Slave1.nxc"
7	76	27		strcat __strbufBTCheck, __constStr0009
7	76	31	#line 76 "D:\NXT Programok\Slave1.nxc"
7	77	31		acquire __TextOutMutex
7	76	32	#line 76 "D:\NXT Programok\Slave1.nxc"
7	77	32		mov __TextOutArgs.Location.X, __signed_stack_001BTCheck
7	76	35	#line 76 "D:\NXT Programok\Slave1.nxc"
7	77	35		mov __TextOutArgs.Location.Y, __signed_stack_002BTCheck
7	76	38	#line 76 "D:\NXT Programok\Slave1.nxc"
7	77	38		set __TextOutArgs.Options, 0
7	76	41	#line 76 "D:\NXT Programok\Slave1.nxc"
7	77	41		mov __TextOutArgs.Text, __strbufBTCheck
7	76	43	#line 76 "D:\NXT Programok\Slave1.nxc"
7	77	43		syscall 13, __TextOutArgs
7	76	46	#line 76 "D:\NXT Programok\Slave1.nxc"
7	77	46		mov __D0BTCheck, __TextOutArgs.Result
7	76	49	#line 76 "D:\NXT Programok\Slave1.nxc"
7	77	49		release __TextOutMutex
7	76	50	#line 76 "D:\NXT Programok\Slave1.nxc"
7	76	50	#line 76 "D:\NXT Programok\Slave1.nxc"
7	77	50		set __Wait_7qG2_ms_7qG2_000_inline_BTCheck, 2000
7	76	53	#line 76 "D:\NXT Programok\Slave1.nxc"
7	7921	53	#line 7921 "NXCDefs.h"
7	7922	53		wait2 NA, __Wait_7qG2_ms_7qG2_000_inline_BTCheck
7	7921	56	#line 7921 "NXCDefs.h"
7	78	56	#line 78 "D:\NXT Programok\Slave1.nxc"
7	79	56	#line 79 "D:\NXT Programok\Slave1.nxc"
7	80	56		jmp __NXC_Label_539
7	79	58	#line 79 "D:\NXT Programok\Slave1.nxc"
7	6069	58	#line 6069 "NXCDefs.h"
7	6070	58	#pragma macro 6
7	6070	58		acquire __PointOutMutex
7	6070	59		mov __PointOutArgs.Location.X, __constVal200
7	6070	62		mov __PointOutArgs.Location.Y, __constVal200
7	6070	65		mov __PointOutArgs.Options, __constVal1
7	6070	67		syscall 14, __PointOutArgs
7	6070	70		release __PointOutMutex
7	7158	71	#line 7158 "NXCDefs.h"
7	6069	71	#line 6069 "NXCDefs.h"
7	80	71	#line 80 "D:\NXT Programok\Slave1.nxc"
7	82	71	#line 82 "D:\NXT Programok\Slave1.nxc"
7	83	71		subret __BTCheck_return
8	84	0	#line 84 "D:\NXT Programok\Slave1.nxc"
8	85	0		mov __signed_stack_001MotorAB, power
8	84	2	#line 84 "D:\NXT Programok\Slave1.nxc"
8	84	2	#line 84 "D:\NXT Programok\Slave1.nxc"
8	85	2		mov __signed_stack_002MotorAB, RA
8	84	4	#line 84 "D:\NXT Programok\Slave1.nxc"
8	84	4	#line 84 "D:\NXT Programok\Slave1.nxc"
8	85	4		set __signed_stack_003MotorAB, 0
8	84	7	#line 84 "D:\NXT Programok\Slave1.nxc"
8	84	7	#line 84 "D:\NXT Programok\Slave1.nxc"
8	85	7		set __signed_stack_004MotorAB, 1
8	84	10	#line 84 "D:\NXT Programok\Slave1.nxc"
8	84	10	#line 84 "D:\NXT Programok\Slave1.nxc"
8	85	10		set __signed_stack_005MotorAB, 1
8	84	13	#line 84 "D:\NXT Programok\Slave1.nxc"
8	84	13	#line 84 "D:\NXT Programok\Slave1.nxc"
8	85	13		set __signed_stack_006MotorAB, 50
8	84	16	#line 84 "D:\NXT Programok\Slave1.nxc"
8	84	16	#line 84 "D:\NXT Programok\Slave1.nxc"
8	85	16		set __signed_stack_007MotorAB, 50
8	84	19	#line 84 "D:\NXT Programok\Slave1.nxc"
8	84	19	#line 84 "D:\NXT Programok\Slave1.nxc"
8	85	19		set __D0MotorAB, 50
8	85	22	#line 85 "D:\NXT Programok\Slave1.nxc"
8	86	22	#pragma macro 35
8	86	22		acquire __rotateMutex0
8	86	23		acquire __rotateMutex1
8	86	24		mov __rotate_ports3, __OUT_AB
8	86	26		mov __rotate_power3, __signed_stack_001MotorAB
8	86	28		mov __rotate_angle3, __signed_stack_002MotorAB
8	86	30		mov __rotate_turnpct3, __signed_stack_003MotorAB
8	86	32		mov __rotate_sync3, __signed_stack_004MotorAB
8	86	34		mov __rotate_stop3, __signed_stack_005MotorAB
8	86	36		mov __rotate_theRVP3, __signed_stack_006MotorAB
8	86	39		mov __rotate_theRVI3, __signed_stack_007MotorAB
8	86	42		mov __rotate_theRVD3, __D0MotorAB
8	86	44		subcall __RotateMotor3, ____RotateMotor3_return
8	86	47		release __rotateMutex1
8	86	48		release __rotateMutex0
8	7213	49	#line 7213 "D:\NXT Programok\Slave1.nxc"
8	85	49	#line 85 "D:\NXT Programok\Slave1.nxc"
8	86	49	#line 86 "D:\NXT Programok\Slave1.nxc"
8	87	49		set A_Done, 1
8	86	52	#line 86 "D:\NXT Programok\Slave1.nxc"
8	86	52	#line 86 "D:\NXT Programok\Slave1.nxc"
8	87	52	#line 87 "D:\NXT Programok\Slave1.nxc"
8	88	52		set B_Done, 1
8	87	55	#line 87 "D:\NXT Programok\Slave1.nxc"
8	87	55	#line 87 "D:\NXT Programok\Slave1.nxc"
8	88	55		exit -1, -1
9	91	0	#line 91 "D:\NXT Programok\Slave1.nxc"
9	92	0		mov __signed_stack_001MotorABInverse, RA
9	91	2	#line 91 "D:\NXT Programok\Slave1.nxc"
9	91	2	#line 91 "D:\NXT Programok\Slave1.nxc"
9	92	2		set __D0MotorABInverse, 0
9	91	5	#line 91 "D:\NXT Programok\Slave1.nxc"
9	92	5		cmp 1, __zfMotorABInverse, __signed_stack_001MotorABInverse, __D0MotorABInverse
9	91	9	#line 91 "D:\NXT Programok\Slave1.nxc"
9	92	9		mov __D0MotorABInverse, __zfMotorABInverse
9	91	11	#line 91 "D:\NXT Programok\Slave1.nxc"
9	92	11		brtst 4, __NXC_Label_570, __zfMotorABInverse
9	91	14	#line 91 "D:\NXT Programok\Slave1.nxc"
9	92	14		mov __signed_stack_001MotorABInverse, __D0MotorABInverse
9	91	16	#line 91 "D:\NXT Programok\Slave1.nxc"
9	92	16		mov __signed_stack_002MotorABInverse, RB
9	91	18	#line 91 "D:\NXT Programok\Slave1.nxc"
9	91	18	#line 91 "D:\NXT Programok\Slave1.nxc"
9	92	18		set __D0MotorABInverse, 0
9	91	21	#line 91 "D:\NXT Programok\Slave1.nxc"
9	92	21		cmp 0, __zfMotorABInverse, __signed_stack_002MotorABInverse, __D0MotorABInverse
9	91	25	#line 91 "D:\NXT Programok\Slave1.nxc"
9	91	25	#line 91 "D:\NXT Programok\Slave1.nxc"
9	92	25		and __D0MotorABInverse, __signed_stack_001MotorABInverse, __zfMotorABInverse
9	92	29	#line 92 "D:\NXT Programok\Slave1.nxc"
9	93	29		tst 5, __zfMotorABInverse, __D0MotorABInverse
9	92	32	#line 92 "D:\NXT Programok\Slave1.nxc"
9	93	32		brtst 4, __NXC_Label_571, __zfMotorABInverse
9	92	35	#line 92 "D:\NXT Programok\Slave1.nxc"
9	93	35		mov __signed_stack_001MotorABInverse, power
9	92	37	#line 92 "D:\NXT Programok\Slave1.nxc"
9	92	37	#line 92 "D:\NXT Programok\Slave1.nxc"
9	93	37		mov __signed_stack_002MotorABInverse, RA
9	92	39	#line 92 "D:\NXT Programok\Slave1.nxc"
9	92	39	#line 92 "D:\NXT Programok\Slave1.nxc"
9	93	39		mov __signed_stack_003MotorABInverse, __constValNeg100
9	92	42	#line 92 "D:\NXT Programok\Slave1.nxc"
9	92	42	#line 92 "D:\NXT Programok\Slave1.nxc"
9	93	42		set __signed_stack_004MotorABInverse, 1
9	92	45	#line 92 "D:\NXT Programok\Slave1.nxc"
9	92	45	#line 92 "D:\NXT Programok\Slave1.nxc"
9	93	45		set __signed_stack_005MotorABInverse, 1
9	92	48	#line 92 "D:\NXT Programok\Slave1.nxc"
9	92	48	#line 92 "D:\NXT Programok\Slave1.nxc"
9	93	48		set __signed_stack_006MotorABInverse, 90
9	92	51	#line 92 "D:\NXT Programok\Slave1.nxc"
9	92	51	#line 92 "D:\NXT Programok\Slave1.nxc"
9	93	51		set __signed_stack_007MotorABInverse, 40
9	92	54	#line 92 "D:\NXT Programok\Slave1.nxc"
9	92	54	#line 92 "D:\NXT Programok\Slave1.nxc"
9	93	54		set __D0MotorABInverse, 50
9	93	57	#line 93 "D:\NXT Programok\Slave1.nxc"
9	94	57	#pragma macro 35
9	94	57		acquire __rotateMutex0
9	94	58		acquire __rotateMutex1
9	94	59		mov __rotate_ports3, __OUT_AB
9	94	61		mov __rotate_power3, __signed_stack_001MotorABInverse
9	94	63		mov __rotate_angle3, __signed_stack_002MotorABInverse
9	94	65		mov __rotate_turnpct3, __signed_stack_003MotorABInverse
9	94	67		mov __rotate_sync3, __signed_stack_004MotorABInverse
9	94	69		mov __rotate_stop3, __signed_stack_005MotorABInverse
9	94	71		mov __rotate_theRVP3, __signed_stack_006MotorABInverse
9	94	73		mov __rotate_theRVI3, __signed_stack_007MotorABInverse
9	94	75		mov __rotate_theRVD3, __D0MotorABInverse
9	94	77		subcall __RotateMotor3, ____RotateMotor3_return
9	94	80		release __rotateMutex1
9	94	81		release __rotateMutex0
9	7311	82	#line 7311 "D:\NXT Programok\Slave1.nxc"
9	93	82	#line 93 "D:\NXT Programok\Slave1.nxc"
9	95	82	#line 95 "D:\NXT Programok\Slave1.nxc"
9	96	82		jmp __NXC_Label_588
9	95	84	#line 95 "D:\NXT Programok\Slave1.nxc"
9	96	84		mov __signed_stack_001MotorABInverse, power
9	95	86	#line 95 "D:\NXT Programok\Slave1.nxc"
9	95	86	#line 95 "D:\NXT Programok\Slave1.nxc"
9	96	86		mov __signed_stack_002MotorABInverse, RA
9	95	88	#line 95 "D:\NXT Programok\Slave1.nxc"
9	95	88	#line 95 "D:\NXT Programok\Slave1.nxc"
9	96	88		set __signed_stack_003MotorABInverse, 100
9	95	91	#line 95 "D:\NXT Programok\Slave1.nxc"
9	95	91	#line 95 "D:\NXT Programok\Slave1.nxc"
9	96	91		set __signed_stack_004MotorABInverse, 1
9	95	94	#line 95 "D:\NXT Programok\Slave1.nxc"
9	95	94	#line 95 "D:\NXT Programok\Slave1.nxc"
9	96	94		set __signed_stack_005MotorABInverse, 1
9	95	97	#line 95 "D:\NXT Programok\Slave1.nxc"
9	95	97	#line 95 "D:\NXT Programok\Slave1.nxc"
9	96	97		set __signed_stack_006MotorABInverse, 90
9	95	100	#line 95 "D:\NXT Programok\Slave1.nxc"
9	95	100	#line 95 "D:\NXT Programok\Slave1.nxc"
9	96	100		set __signed_stack_007MotorABInverse, 40
9	95	103	#line 95 "D:\NXT Programok\Slave1.nxc"
9	95	103	#line 95 "D:\NXT Programok\Slave1.nxc"
9	96	103		set __D0MotorABInverse, 50
9	96	106	#line 96 "D:\NXT Programok\Slave1.nxc"
9	97	106	#pragma macro 35
9	97	106		acquire __rotateMutex0
9	97	107		acquire __rotateMutex1
9	97	108		mov __rotate_ports3, __OUT_AB
9	97	110		mov __rotate_power3, __signed_stack_001MotorABInverse
9	97	112		mov __rotate_angle3, __signed_stack_002MotorABInverse
9	97	114		mov __rotate_turnpct3, __signed_stack_003MotorABInverse
9	97	116		mov __rotate_sync3, __signed_stack_004MotorABInverse
9	97	118		mov __rotate_stop3, __signed_stack_005MotorABInverse
9	97	120		mov __rotate_theRVP3, __signed_stack_006MotorABInverse
9	97	122		mov __rotate_theRVI3, __signed_stack_007MotorABInverse
9	97	124		mov __rotate_theRVD3, __D0MotorABInverse
9	97	126		subcall __RotateMotor3, ____RotateMotor3_return
9	97	129		release __rotateMutex1
9	97	130		release __rotateMutex0
9	7363	131	#line 7363 "D:\NXT Programok\Slave1.nxc"
9	96	131	#line 96 "D:\NXT Programok\Slave1.nxc"
9	98	131	#line 98 "D:\NXT Programok\Slave1.nxc"
9	99	131	#line 99 "D:\NXT Programok\Slave1.nxc"
9	100	131		set A_Done, 1
9	99	134	#line 99 "D:\NXT Programok\Slave1.nxc"
9	99	134	#line 99 "D:\NXT Programok\Slave1.nxc"
9	100	134	#line 100 "D:\NXT Programok\Slave1.nxc"
9	101	134		set B_Done, 1
9	100	137	#line 100 "D:\NXT Programok\Slave1.nxc"
9	100	137	#line 100 "D:\NXT Programok\Slave1.nxc"
9	101	137		exit -1, -1
10	104	0	#line 104 "D:\NXT Programok\Slave1.nxc"
10	105	0		mov __signed_stack_001MotorA, power
10	104	2	#line 104 "D:\NXT Programok\Slave1.nxc"
10	104	2	#line 104 "D:\NXT Programok\Slave1.nxc"
10	105	2		mov __signed_stack_002MotorA, RA
10	104	4	#line 104 "D:\NXT Programok\Slave1.nxc"
10	104	4	#line 104 "D:\NXT Programok\Slave1.nxc"
10	105	4		set __signed_stack_003MotorA, 40
10	104	7	#line 104 "D:\NXT Programok\Slave1.nxc"
10	104	7	#line 104 "D:\NXT Programok\Slave1.nxc"
10	105	7		set __signed_stack_004MotorA, 40
10	104	10	#line 104 "D:\NXT Programok\Slave1.nxc"
10	104	10	#line 104 "D:\NXT Programok\Slave1.nxc"
10	105	10		set __D0MotorA, 40
10	105	13	#line 105 "D:\NXT Programok\Slave1.nxc"
10	106	13	#pragma macro 33
10	106	13		acquire __rotateMutex0
10	106	14		arrbuild __rotate_ports0, __constVal0
10	106	18		mov __rotate_power0, __signed_stack_001MotorA
10	106	20		mov __rotate_angle0, __signed_stack_002MotorA
10	106	22		mov __rotate_turnpct0, __constVal0
10	106	24		mov __rotate_sync0, __constVal0
10	106	26		mov __rotate_stop0, __constVal1
10	106	28		mov __rotate_theRVP0, __signed_stack_003MotorA
10	106	30		mov __rotate_theRVI0, __signed_stack_004MotorA
10	106	32		mov __rotate_theRVD0, __D0MotorA
10	106	34		subcall __RotateMotor0, ____RotateMotor0_return
10	106	37		release __rotateMutex0
10	7413	38	#line 7413 "D:\NXT Programok\Slave1.nxc"
10	105	38	#line 105 "D:\NXT Programok\Slave1.nxc"
10	106	38	#line 106 "D:\NXT Programok\Slave1.nxc"
10	107	38		set A_Done, 1
10	106	41	#line 106 "D:\NXT Programok\Slave1.nxc"
10	106	41	#line 106 "D:\NXT Programok\Slave1.nxc"
10	107	41		exit -1, -1
11	111	0	#line 111 "D:\NXT Programok\Slave1.nxc"
11	112	0		mov __signed_stack_001MotorB, power
11	111	2	#line 111 "D:\NXT Programok\Slave1.nxc"
11	111	2	#line 111 "D:\NXT Programok\Slave1.nxc"
11	112	2		mov __signed_stack_002MotorB, RB
11	111	4	#line 111 "D:\NXT Programok\Slave1.nxc"
11	111	4	#line 111 "D:\NXT Programok\Slave1.nxc"
11	112	4		set __signed_stack_003MotorB, 40
11	111	7	#line 111 "D:\NXT Programok\Slave1.nxc"
11	111	7	#line 111 "D:\NXT Programok\Slave1.nxc"
11	112	7		set __signed_stack_004MotorB, 40
11	111	10	#line 111 "D:\NXT Programok\Slave1.nxc"
11	111	10	#line 111 "D:\NXT Programok\Slave1.nxc"
11	112	10		set __D0MotorB, 40
11	112	13	#line 112 "D:\NXT Programok\Slave1.nxc"
11	113	13	#pragma macro 33
11	113	13		acquire __rotateMutex1
11	113	14		arrbuild __rotate_ports1, __constVal1
11	113	18		mov __rotate_power1, __signed_stack_001MotorB
11	113	21		mov __rotate_angle1, __signed_stack_002MotorB
11	113	23		mov __rotate_turnpct1, __constVal0
11	113	25		mov __rotate_sync1, __constVal0
11	113	27		mov __rotate_stop1, __constVal1
11	113	29		mov __rotate_theRVP1, __signed_stack_003MotorB
11	113	31		mov __rotate_theRVI1, __signed_stack_004MotorB
11	113	33		mov __rotate_theRVD1, __D0MotorB
11	113	35		subcall __RotateMotor1, ____RotateMotor1_return
11	113	38		release __rotateMutex1
11	7454	39	#line 7454 "D:\NXT Programok\Slave1.nxc"
11	112	39	#line 112 "D:\NXT Programok\Slave1.nxc"
11	113	39	#line 113 "D:\NXT Programok\Slave1.nxc"
11	114	39		set B_Done, 1
11	113	42	#line 113 "D:\NXT Programok\Slave1.nxc"
11	113	42	#line 113 "D:\NXT Programok\Slave1.nxc"
11	114	42		exit -1, -1
12	128	0	#line 128 "D:\NXT Programok\Slave1.nxc"
12	129	0		getout __MotorRealPosition_7qG2_AP_7qG2_000, __constVal0, 14
12	128	4	#line 128 "D:\NXT Programok\Slave1.nxc"
12	129	4	#line 129 "D:\NXT Programok\Slave1.nxc"
12	130	4		getout __MotorRealPosition_7qG2_BP_7qG2_000, __constVal1, 14
12	129	8	#line 129 "D:\NXT Programok\Slave1.nxc"
12	129	8	#line 129 "D:\NXT Programok\Slave1.nxc"
12	130	8		set __ClearLine_7qG2_line_7qG2_000_inline_MotorRealPosition, 16
12	129	11	#line 129 "D:\NXT Programok\Slave1.nxc"
12	6076	11	#line 6076 "NXCDefs.h"
12	6077	11	#pragma macro 7
12	6077	11		acquire __TextOutMutex
12	6077	12		mov __TextOutArgs.Location.X, __constVal0
12	6077	14		mov __TextOutArgs.Location.Y, __ClearLine_7qG2_line_7qG2_000_inline_MotorRealPosition
12	6077	16		mov __TextOutArgs.Options, __constVal0
12	6077	18		mov __TextOutArgs.Text, __BlankLine
12	6077	20		syscall 13, __TextOutArgs
12	6077	23		release __TextOutMutex
12	7584	24	#line 7584 "NXCDefs.h"
12	6076	24	#line 6076 "NXCDefs.h"
12	130	24	#line 130 "D:\NXT Programok\Slave1.nxc"
12	130	24	#line 130 "D:\NXT Programok\Slave1.nxc"
12	131	24		set __ClearLine_7qG2_line_7qG2_000_inline_MotorRealPosition, 8
12	130	27	#line 130 "D:\NXT Programok\Slave1.nxc"
12	6076	27	#line 6076 "NXCDefs.h"
12	6077	27	#pragma macro 7
12	6077	27		acquire __TextOutMutex
12	6077	28		mov __TextOutArgs.Location.X, __constVal0
12	6077	30		mov __TextOutArgs.Location.Y, __ClearLine_7qG2_line_7qG2_000_inline_MotorRealPosition
12	6077	32		mov __TextOutArgs.Options, __constVal0
12	6077	34		mov __TextOutArgs.Text, __BlankLine
12	6077	36		syscall 13, __TextOutArgs
12	6077	39		release __TextOutMutex
12	7594	40	#line 7594 "NXCDefs.h"
12	6076	40	#line 6076 "NXCDefs.h"
12	132	40	#line 132 "D:\NXT Programok\Slave1.nxc"
12	132	40	#line 132 "D:\NXT Programok\Slave1.nxc"
12	133	40		set __signed_stack_001MotorRealPosition, 10
12	132	43	#line 132 "D:\NXT Programok\Slave1.nxc"
12	132	43	#line 132 "D:\NXT Programok\Slave1.nxc"
12	133	43		set __signed_stack_002MotorRealPosition, 16
12	132	46	#line 132 "D:\NXT Programok\Slave1.nxc"
12	132	46	#line 132 "D:\NXT Programok\Slave1.nxc"
12	133	46		mov __D0MotorRealPosition, __MotorRealPosition_7qG2_AP_7qG2_000
12	132	48	#line 132 "D:\NXT Programok\Slave1.nxc"
12	133	48		numtostr __strretvalMotorRealPosition, __D0MotorRealPosition
12	132	51	#line 132 "D:\NXT Programok\Slave1.nxc"
12	133	51		strcat __strbufMotorRealPosition, __strretvalMotorRealPosition
12	133	55	#line 133 "D:\NXT Programok\Slave1.nxc"
12	134	55		acquire __TextOutMutex
12	133	56	#line 133 "D:\NXT Programok\Slave1.nxc"
12	134	56		mov __TextOutArgs.Location.X, __signed_stack_001MotorRealPosition
12	133	59	#line 133 "D:\NXT Programok\Slave1.nxc"
12	134	59		mov __TextOutArgs.Location.Y, __signed_stack_002MotorRealPosition
12	133	62	#line 133 "D:\NXT Programok\Slave1.nxc"
12	134	62		set __TextOutArgs.Options, 0
12	133	65	#line 133 "D:\NXT Programok\Slave1.nxc"
12	134	65		mov __TextOutArgs.Text, __strbufMotorRealPosition
12	133	67	#line 133 "D:\NXT Programok\Slave1.nxc"
12	134	67		syscall 13, __TextOutArgs
12	133	70	#line 133 "D:\NXT Programok\Slave1.nxc"
12	134	70		mov __D0MotorRealPosition, __TextOutArgs.Result
12	133	73	#line 133 "D:\NXT Programok\Slave1.nxc"
12	134	73		release __TextOutMutex
12	133	74	#line 133 "D:\NXT Programok\Slave1.nxc"
12	133	74	#line 133 "D:\NXT Programok\Slave1.nxc"
12	134	74		set __signed_stack_001MotorRealPosition, 60
12	133	77	#line 133 "D:\NXT Programok\Slave1.nxc"
12	133	77	#line 133 "D:\NXT Programok\Slave1.nxc"
12	134	77		set __signed_stack_002MotorRealPosition, 16
12	133	80	#line 133 "D:\NXT Programok\Slave1.nxc"
12	133	80	#line 133 "D:\NXT Programok\Slave1.nxc"
12	134	80		mov __D0MotorRealPosition, __MotorRealPosition_7qG2_BP_7qG2_000
12	133	82	#line 133 "D:\NXT Programok\Slave1.nxc"
12	134	82		numtostr __strretvalMotorRealPosition, __D0MotorRealPosition
12	133	85	#line 133 "D:\NXT Programok\Slave1.nxc"
12	134	85		strcat __strbufMotorRealPosition, __strretvalMotorRealPosition
12	135	89	#line 135 "D:\NXT Programok\Slave1.nxc"
12	136	89		acquire __TextOutMutex
12	135	90	#line 135 "D:\NXT Programok\Slave1.nxc"
12	136	90		mov __TextOutArgs.Location.X, __signed_stack_001MotorRealPosition
12	135	93	#line 135 "D:\NXT Programok\Slave1.nxc"
12	136	93		mov __TextOutArgs.Location.Y, __signed_stack_002MotorRealPosition
12	135	96	#line 135 "D:\NXT Programok\Slave1.nxc"
12	136	96		set __TextOutArgs.Options, 0
12	135	99	#line 135 "D:\NXT Programok\Slave1.nxc"
12	136	99		mov __TextOutArgs.Text, __strbufMotorRealPosition
12	135	101	#line 135 "D:\NXT Programok\Slave1.nxc"
12	136	101		syscall 13, __TextOutArgs
12	135	104	#line 135 "D:\NXT Programok\Slave1.nxc"
12	136	104		mov __D0MotorRealPosition, __TextOutArgs.Result
12	135	107	#line 135 "D:\NXT Programok\Slave1.nxc"
12	136	107		release __TextOutMutex
12	135	108	#line 135 "D:\NXT Programok\Slave1.nxc"
12	135	108	#line 135 "D:\NXT Programok\Slave1.nxc"
12	136	108		set __signed_stack_001MotorRealPosition, 10
12	135	111	#line 135 "D:\NXT Programok\Slave1.nxc"
12	135	111	#line 135 "D:\NXT Programok\Slave1.nxc"
12	136	111		set __signed_stack_002MotorRealPosition, 8
12	135	114	#line 135 "D:\NXT Programok\Slave1.nxc"
12	135	114	#line 135 "D:\NXT Programok\Slave1.nxc"
12	135	114	#line 135 "D:\NXT Programok\Slave1.nxc"
12	135	114	#line 135 "D:\NXT Programok\Slave1.nxc"
12	135	114	#line 135 "D:\NXT Programok\Slave1.nxc"
12	136	114		sub __D0MotorRealPosition, A_Memory, __MotorRealPosition_7qG2_AP_7qG2_000
12	135	118	#line 135 "D:\NXT Programok\Slave1.nxc"
12	136	118		numtostr __strretvalMotorRealPosition, __D0MotorRealPosition
12	135	121	#line 135 "D:\NXT Programok\Slave1.nxc"
12	136	121		strcat __strbufMotorRealPosition, __strretvalMotorRealPosition
12	136	125	#line 136 "D:\NXT Programok\Slave1.nxc"
12	137	125		acquire __TextOutMutex
12	136	126	#line 136 "D:\NXT Programok\Slave1.nxc"
12	137	126		mov __TextOutArgs.Location.X, __signed_stack_001MotorRealPosition
12	136	129	#line 136 "D:\NXT Programok\Slave1.nxc"
12	137	129		mov __TextOutArgs.Location.Y, __signed_stack_002MotorRealPosition
12	136	132	#line 136 "D:\NXT Programok\Slave1.nxc"
12	137	132		set __TextOutArgs.Options, 0
12	136	135	#line 136 "D:\NXT Programok\Slave1.nxc"
12	137	135		mov __TextOutArgs.Text, __strbufMotorRealPosition
12	136	137	#line 136 "D:\NXT Programok\Slave1.nxc"
12	137	137		syscall 13, __TextOutArgs
12	136	140	#line 136 "D:\NXT Programok\Slave1.nxc"
12	137	140		mov __D0MotorRealPosition, __TextOutArgs.Result
12	136	143	#line 136 "D:\NXT Programok\Slave1.nxc"
12	137	143		release __TextOutMutex
12	136	144	#line 136 "D:\NXT Programok\Slave1.nxc"
12	136	144	#line 136 "D:\NXT Programok\Slave1.nxc"
12	137	144		set __signed_stack_001MotorRealPosition, 60
12	136	147	#line 136 "D:\NXT Programok\Slave1.nxc"
12	136	147	#line 136 "D:\NXT Programok\Slave1.nxc"
12	137	147		set __signed_stack_002MotorRealPosition, 8
12	136	150	#line 136 "D:\NXT Programok\Slave1.nxc"
12	136	150	#line 136 "D:\NXT Programok\Slave1.nxc"
12	136	150	#line 136 "D:\NXT Programok\Slave1.nxc"
12	136	150	#line 136 "D:\NXT Programok\Slave1.nxc"
12	136	150	#line 136 "D:\NXT Programok\Slave1.nxc"
12	137	150		sub __D0MotorRealPosition, B_Memory, __MotorRealPosition_7qG2_BP_7qG2_000
12	136	154	#line 136 "D:\NXT Programok\Slave1.nxc"
12	137	154		numtostr __strretvalMotorRealPosition, __D0MotorRealPosition
12	136	157	#line 136 "D:\NXT Programok\Slave1.nxc"
12	137	157		strcat __strbufMotorRealPosition, __strretvalMotorRealPosition
12	137	161	#line 137 "D:\NXT Programok\Slave1.nxc"
12	138	161		acquire __TextOutMutex
12	137	162	#line 137 "D:\NXT Programok\Slave1.nxc"
12	138	162		mov __TextOutArgs.Location.X, __signed_stack_001MotorRealPosition
12	137	165	#line 137 "D:\NXT Programok\Slave1.nxc"
12	138	165		mov __TextOutArgs.Location.Y, __signed_stack_002MotorRealPosition
12	137	168	#line 137 "D:\NXT Programok\Slave1.nxc"
12	138	168		set __TextOutArgs.Options, 0
12	137	171	#line 137 "D:\NXT Programok\Slave1.nxc"
12	138	171		mov __TextOutArgs.Text, __strbufMotorRealPosition
12	137	173	#line 137 "D:\NXT Programok\Slave1.nxc"
12	138	173		syscall 13, __TextOutArgs
12	137	176	#line 137 "D:\NXT Programok\Slave1.nxc"
12	138	176		mov __D0MotorRealPosition, __TextOutArgs.Result
12	137	179	#line 137 "D:\NXT Programok\Slave1.nxc"
12	138	179		release __TextOutMutex
12	137	180	#line 137 "D:\NXT Programok\Slave1.nxc"
12	137	180	#line 137 "D:\NXT Programok\Slave1.nxc"
12	138	180		strcat __strbufMotorRealPosition, __MotorRealPosition_7qG2_Port_7qG2_000
12	137	184	#line 137 "D:\NXT Programok\Slave1.nxc"
12	138	184		mov __strtmpbufMotorRealPosition, __strbufMotorRealPosition
12	138	186	#line 138 "D:\NXT Programok\Slave1.nxc"
12	139	186		strcat __strbufMotorRealPosition, __constStr0010
12	138	190	#line 138 "D:\NXT Programok\Slave1.nxc"
12	139	190		cmp 4, __zfMotorRealPosition, __strtmpbufMotorRealPosition, __strbufMotorRealPosition
12	138	194	#line 138 "D:\NXT Programok\Slave1.nxc"
12	139	194		mov __D0MotorRealPosition, __zfMotorRealPosition
12	139	196	#line 139 "D:\NXT Programok\Slave1.nxc"
12	140	196		brtst 4, __NXC_Label_683, __zfMotorRealPosition
12	139	199	#line 139 "D:\NXT Programok\Slave1.nxc"
12	140	199		set __signed_stack_001MotorRealPosition, 30
12	139	202	#line 139 "D:\NXT Programok\Slave1.nxc"
12	139	202	#line 139 "D:\NXT Programok\Slave1.nxc"
12	140	202		set __signed_stack_002MotorRealPosition, 24
12	139	205	#line 139 "D:\NXT Programok\Slave1.nxc"
12	139	205	#line 139 "D:\NXT Programok\Slave1.nxc"
12	140	205		strcat __strbufMotorRealPosition, __constStr0010
12	140	209	#line 140 "D:\NXT Programok\Slave1.nxc"
12	141	209		acquire __TextOutMutex
12	140	210	#line 140 "D:\NXT Programok\Slave1.nxc"
12	141	210		mov __TextOutArgs.Location.X, __signed_stack_001MotorRealPosition
12	140	213	#line 140 "D:\NXT Programok\Slave1.nxc"
12	141	213		mov __TextOutArgs.Location.Y, __signed_stack_002MotorRealPosition
12	140	216	#line 140 "D:\NXT Programok\Slave1.nxc"
12	141	216		set __TextOutArgs.Options, 0
12	140	219	#line 140 "D:\NXT Programok\Slave1.nxc"
12	141	219		mov __TextOutArgs.Text, __strbufMotorRealPosition
12	140	221	#line 140 "D:\NXT Programok\Slave1.nxc"
12	141	221		syscall 13, __TextOutArgs
12	140	224	#line 140 "D:\NXT Programok\Slave1.nxc"
12	141	224		mov __D0MotorRealPosition, __TextOutArgs.Result
12	140	227	#line 140 "D:\NXT Programok\Slave1.nxc"
12	141	227		release __TextOutMutex
12	140	228	#line 140 "D:\NXT Programok\Slave1.nxc"
12	141	228	#line 141 "D:\NXT Programok\Slave1.nxc"
12	142	228		mov __D0MotorRealPosition, __MotorRealPosition_7qG2_AP_7qG2_000
12	141	230	#line 141 "D:\NXT Programok\Slave1.nxc"
12	142	230		subret __MotorRealPosition_return
12	141	232	#line 141 "D:\NXT Programok\Slave1.nxc"
12	144	232	#line 144 "D:\NXT Programok\Slave1.nxc"
12	145	232		jmp __NXC_Label_690
12	144	234	#line 144 "D:\NXT Programok\Slave1.nxc"
12	145	234		set __signed_stack_001MotorRealPosition, 70
12	144	237	#line 144 "D:\NXT Programok\Slave1.nxc"
12	144	237	#line 144 "D:\NXT Programok\Slave1.nxc"
12	145	237		set __signed_stack_002MotorRealPosition, 24
12	144	240	#line 144 "D:\NXT Programok\Slave1.nxc"
12	144	240	#line 144 "D:\NXT Programok\Slave1.nxc"
12	145	240		strcat __strbufMotorRealPosition, __constStr0011
12	146	244	#line 146 "D:\NXT Programok\Slave1.nxc"
12	147	244		acquire __TextOutMutex
12	146	245	#line 146 "D:\NXT Programok\Slave1.nxc"
12	147	245		mov __TextOutArgs.Location.X, __signed_stack_001MotorRealPosition
12	146	248	#line 146 "D:\NXT Programok\Slave1.nxc"
12	147	248		mov __TextOutArgs.Location.Y, __signed_stack_002MotorRealPosition
12	146	251	#line 146 "D:\NXT Programok\Slave1.nxc"
12	147	251		set __TextOutArgs.Options, 0
12	146	254	#line 146 "D:\NXT Programok\Slave1.nxc"
12	147	254		mov __TextOutArgs.Text, __strbufMotorRealPosition
12	146	256	#line 146 "D:\NXT Programok\Slave1.nxc"
12	147	256		syscall 13, __TextOutArgs
12	146	259	#line 146 "D:\NXT Programok\Slave1.nxc"
12	147	259		mov __D0MotorRealPosition, __TextOutArgs.Result
12	146	262	#line 146 "D:\NXT Programok\Slave1.nxc"
12	147	262		release __TextOutMutex
12	146	263	#line 146 "D:\NXT Programok\Slave1.nxc"
12	147	263	#line 147 "D:\NXT Programok\Slave1.nxc"
12	148	263		mov __D0MotorRealPosition, __MotorRealPosition_7qG2_BP_7qG2_000
12	147	265	#line 147 "D:\NXT Programok\Slave1.nxc"
12	148	265		subret __MotorRealPosition_return
12	147	267	#line 147 "D:\NXT Programok\Slave1.nxc"
12	150	267	#line 150 "D:\NXT Programok\Slave1.nxc"
12	150	267	#line 150 "D:\NXT Programok\Slave1.nxc"
12	151	267		subret __MotorRealPosition_return
13	154	0	#line 154 "D:\NXT Programok\Slave1.nxc"
13	155	0		set __Drive_7qG2_A_7qG2_000, 0
13	154	3	#line 154 "D:\NXT Programok\Slave1.nxc"
13	155	3	#line 155 "D:\NXT Programok\Slave1.nxc"
13	156	3		set __Drive_7qG2_B_7qG2_000, 0
13	155	6	#line 155 "D:\NXT Programok\Slave1.nxc"
13	156	6	#line 156 "D:\NXT Programok\Slave1.nxc"
13	157	6		set __Drive_7qG2_C_7qG2_000, 0
13	156	9	#line 156 "D:\NXT Programok\Slave1.nxc"
13	156	9	#line 156 "D:\NXT Programok\Slave1.nxc"
13	157	9		set __signed_stack_001Drive, 0
13	156	12	#line 156 "D:\NXT Programok\Slave1.nxc"
13	156	12	#line 156 "D:\NXT Programok\Slave1.nxc"
13	157	12		set __signed_stack_002Drive, 48
13	156	15	#line 156 "D:\NXT Programok\Slave1.nxc"
13	156	15	#line 156 "D:\NXT Programok\Slave1.nxc"
13	157	15		strcat __strbufDrive, __constStr0012
13	157	19	#line 157 "D:\NXT Programok\Slave1.nxc"
13	158	19		acquire __TextOutMutex
13	157	20	#line 157 "D:\NXT Programok\Slave1.nxc"
13	158	20		mov __TextOutArgs.Location.X, __signed_stack_001Drive
13	157	23	#line 157 "D:\NXT Programok\Slave1.nxc"
13	158	23		mov __TextOutArgs.Location.Y, __signed_stack_002Drive
13	157	26	#line 157 "D:\NXT Programok\Slave1.nxc"
13	158	26		set __TextOutArgs.Options, 0
13	157	29	#line 157 "D:\NXT Programok\Slave1.nxc"
13	158	29		mov __TextOutArgs.Text, __strbufDrive
13	157	31	#line 157 "D:\NXT Programok\Slave1.nxc"
13	158	31		syscall 13, __TextOutArgs
13	157	34	#line 157 "D:\NXT Programok\Slave1.nxc"
13	158	34		mov __D0Drive, __TextOutArgs.Result
13	157	37	#line 157 "D:\NXT Programok\Slave1.nxc"
13	158	37		release __TextOutMutex
13	157	38	#line 157 "D:\NXT Programok\Slave1.nxc"
13	157	38	#line 157 "D:\NXT Programok\Slave1.nxc"
13	158	38		set __signed_stack_001Drive, 0
13	157	41	#line 157 "D:\NXT Programok\Slave1.nxc"
13	157	41	#line 157 "D:\NXT Programok\Slave1.nxc"
13	158	41		set __signed_stack_002Drive, 40
13	157	44	#line 157 "D:\NXT Programok\Slave1.nxc"
13	157	44	#line 157 "D:\NXT Programok\Slave1.nxc"
13	158	44		strcat __strbufDrive, __constStr0013
13	158	48	#line 158 "D:\NXT Programok\Slave1.nxc"
13	159	48		acquire __TextOutMutex
13	158	49	#line 158 "D:\NXT Programok\Slave1.nxc"
13	159	49		mov __TextOutArgs.Location.X, __signed_stack_001Drive
13	158	52	#line 158 "D:\NXT Programok\Slave1.nxc"
13	159	52		mov __TextOutArgs.Location.Y, __signed_stack_002Drive
13	158	55	#line 158 "D:\NXT Programok\Slave1.nxc"
13	159	55		set __TextOutArgs.Options, 0
13	158	58	#line 158 "D:\NXT Programok\Slave1.nxc"
13	159	58		mov __TextOutArgs.Text, __strbufDrive
13	158	60	#line 158 "D:\NXT Programok\Slave1.nxc"
13	159	60		syscall 13, __TextOutArgs
13	158	63	#line 158 "D:\NXT Programok\Slave1.nxc"
13	159	63		mov __D0Drive, __TextOutArgs.Result
13	158	66	#line 158 "D:\NXT Programok\Slave1.nxc"
13	159	66		release __TextOutMutex
13	158	67	#line 158 "D:\NXT Programok\Slave1.nxc"
13	159	67	#line 159 "D:\NXT Programok\Slave1.nxc"
13	160	67	#pragma macro 7
13	160	67		setout __OUT_AB, 2, __constVal0, 1, __constVal3, 8, __constVal0, 6, __constVal32, 7, __constVal0, 5, __constVal0, 10, __constVal96, 11, __constVal32, 12, __constVal32, 0, __constVal63
13	7954	90	#line 7954 "D:\NXT Programok\Slave1.nxc"
13	159	90	#line 159 "D:\NXT Programok\Slave1.nxc"
13	159	90	#line 159 "D:\NXT Programok\Slave1.nxc"
13	160	90		set __Wait_7qG2_ms_7qG2_000_inline_Drive, 20
13	159	93	#line 159 "D:\NXT Programok\Slave1.nxc"
13	7921	93	#line 7921 "NXCDefs.h"
13	7922	93		wait2 NA, __Wait_7qG2_ms_7qG2_000_inline_Drive
13	7921	96	#line 7921 "NXCDefs.h"
13	161	96	#line 161 "D:\NXT Programok\Slave1.nxc"
13	162	96	#line 162 "D:\NXT Programok\Slave1.nxc"
13	163	96		subcall __LedGreen_Spawner, __LedGreen_Spawner_return
13	162	98	#line 162 "D:\NXT Programok\Slave1.nxc"
13	162	98	#line 162 "D:\NXT Programok\Slave1.nxc"
13	163	98		set __D0Drive, 1
13	163	101	#line 163 "D:\NXT Programok\Slave1.nxc"
13	164	101		tst 5, __zfDrive, __D0Drive
13	163	104	#line 163 "D:\NXT Programok\Slave1.nxc"
13	164	104		brtst 4, __NXC_Label_714, __zfDrive
13	164	107	#line 164 "D:\NXT Programok\Slave1.nxc"
13	165	107		set __Drive_7qG2_A_7qG2_000, 0
13	164	110	#line 164 "D:\NXT Programok\Slave1.nxc"
13	164	110	#line 164 "D:\NXT Programok\Slave1.nxc"
13	165	110	#line 165 "D:\NXT Programok\Slave1.nxc"
13	166	110		set __Drive_7qG2_B_7qG2_000, 0
13	165	113	#line 165 "D:\NXT Programok\Slave1.nxc"
13	165	113	#line 165 "D:\NXT Programok\Slave1.nxc"
13	168	113	#line 168 "D:\NXT Programok\Slave1.nxc"
13	169	113		set __Drive_7qG2_C_7qG2_000, 0
13	168	116	#line 168 "D:\NXT Programok\Slave1.nxc"
13	168	116	#line 168 "D:\NXT Programok\Slave1.nxc"
13	168	116	#line 168 "D:\NXT Programok\Slave1.nxc"
13	169	116	#pragma macro 7
13	169	116		acquire __MRMutex
13	169	117		mov __MRArgs.QueueID, __constVal5
13	169	119		mov __MRArgs.Remove, __constVal1
13	169	121		syscall 27, __MRArgs
13	169	124		mov __Drive_7qG2_in_7qG2_000, __MRArgs.Message
13	169	126		mov __D0Drive, __MRArgs.Result
13	169	129		release __MRMutex
13	8004	130	#line 8004 "D:\NXT Programok\Slave1.nxc"
13	168	130	#line 168 "D:\NXT Programok\Slave1.nxc"
13	169	130		mov __signed_stack_001Drive, __D0Drive
13	168	132	#line 168 "D:\NXT Programok\Slave1.nxc"
13	169	132		set __D0Drive, 64
13	168	135	#line 168 "D:\NXT Programok\Slave1.nxc"
13	169	135		cmp 5, __zfDrive, __signed_stack_001Drive, __D0Drive
13	168	139	#line 168 "D:\NXT Programok\Slave1.nxc"
13	169	139		mov __D0Drive, __zfDrive
13	170	142	#line 170 "D:\NXT Programok\Slave1.nxc"
13	171	142		brtst 4, __NXC_Label_725, __zfDrive
13	171	145	#line 171 "D:\NXT Programok\Slave1.nxc"
13	172	145		set free, 0
13	171	148	#line 171 "D:\NXT Programok\Slave1.nxc"
13	171	148	#line 171 "D:\NXT Programok\Slave1.nxc"
13	171	148	#line 171 "D:\NXT Programok\Slave1.nxc"
13	172	148	#pragma macro 7
13	172	148		acquire __MWMutex
13	172	149		add __MWArgs.QueueID, __constVal2, __constVal10
13	172	153		mov __SRNTmpVal, ack
13	172	155		flatten __MWArgs.Message, __SRNTmpVal
13	172	158		syscall 26, __MWArgs
13	172	161		mov __D0Drive, __MWArgs.Result
13	172	164		release __MWMutex
13	8025	165	#line 8025 "D:\NXT Programok\Slave1.nxc"
13	171	165	#line 171 "D:\NXT Programok\Slave1.nxc"
13	171	165	#line 171 "D:\NXT Programok\Slave1.nxc"
13	174	165	#line 174 "D:\NXT Programok\Slave1.nxc"
13	175	165		subcall __LedRed_Spawner, __LedRed_Spawner_return
13	174	167	#line 174 "D:\NXT Programok\Slave1.nxc"
13	6069	167	#line 6069 "NXCDefs.h"
13	6070	167	#pragma macro 6
13	6070	167		acquire __PointOutMutex
13	6070	168		mov __PointOutArgs.Location.X, __constVal200
13	6070	171		mov __PointOutArgs.Location.Y, __constVal200
13	6070	174		mov __PointOutArgs.Options, __constVal1
13	6070	176		syscall 14, __PointOutArgs
13	6070	179		release __PointOutMutex
13	8032	180	#line 8032 "NXCDefs.h"
13	6069	180	#line 6069 "NXCDefs.h"
13	175	180	#line 175 "D:\NXT Programok\Slave1.nxc"
13	175	180	#line 175 "D:\NXT Programok\Slave1.nxc"
13	176	180		set __signed_stack_001Drive, 0
13	175	183	#line 175 "D:\NXT Programok\Slave1.nxc"
13	175	183	#line 175 "D:\NXT Programok\Slave1.nxc"
13	176	183		set __signed_stack_002Drive, 56
13	175	186	#line 175 "D:\NXT Programok\Slave1.nxc"
13	175	186	#line 175 "D:\NXT Programok\Slave1.nxc"
13	176	186		strcat __strbufDrive, __constStr0014
13	179	190	#line 179 "D:\NXT Programok\Slave1.nxc"
13	180	190		acquire __TextOutMutex
13	179	191	#line 179 "D:\NXT Programok\Slave1.nxc"
13	180	191		mov __TextOutArgs.Location.X, __signed_stack_001Drive
13	179	194	#line 179 "D:\NXT Programok\Slave1.nxc"
13	180	194		mov __TextOutArgs.Location.Y, __signed_stack_002Drive
13	179	197	#line 179 "D:\NXT Programok\Slave1.nxc"
13	180	197		set __TextOutArgs.Options, 0
13	179	200	#line 179 "D:\NXT Programok\Slave1.nxc"
13	180	200		mov __TextOutArgs.Text, __strbufDrive
13	179	202	#line 179 "D:\NXT Programok\Slave1.nxc"
13	180	202		syscall 13, __TextOutArgs
13	179	205	#line 179 "D:\NXT Programok\Slave1.nxc"
13	180	205		mov __D0Drive, __TextOutArgs.Result
13	179	208	#line 179 "D:\NXT Programok\Slave1.nxc"
13	180	208		release __TextOutMutex
13	179	209	#line 179 "D:\NXT Programok\Slave1.nxc"
13	179	209	#line 179 "D:\NXT Programok\Slave1.nxc"
13	180	209		strcat __strbufDrive, __Drive_7qG2_in_7qG2_000
13	179	213	#line 179 "D:\NXT Programok\Slave1.nxc"
13	180	213		set __signed_stack_001Drive, 0
13	179	216	#line 179 "D:\NXT Programok\Slave1.nxc"
13	179	216	#line 179 "D:\NXT Programok\Slave1.nxc"
13	180	216		set __D0Drive, 5
13	179	219	#line 179 "D:\NXT Programok\Slave1.nxc"
13	180	219		strsubset __strretvalDrive, __strbufDrive, __signed_stack_001Drive, __D0Drive
13	179	224	#line 179 "D:\NXT Programok\Slave1.nxc"
13	180	224		strcat __strbufDrive, __strretvalDrive
13	180	228	#line 180 "D:\NXT Programok\Slave1.nxc"
13	181	228		strtonum RA, __signed_stack_001Drive, __strbufDrive, 65535, 65535
13	180	234	#line 180 "D:\NXT Programok\Slave1.nxc"
13	180	234	#line 180 "D:\NXT Programok\Slave1.nxc"
13	180	234	#line 180 "D:\NXT Programok\Slave1.nxc"
13	181	234		strcat __strbufDrive, __Drive_7qG2_in_7qG2_000
13	180	238	#line 180 "D:\NXT Programok\Slave1.nxc"
13	181	238		set __signed_stack_001Drive, 6
13	180	241	#line 180 "D:\NXT Programok\Slave1.nxc"
13	180	241	#line 180 "D:\NXT Programok\Slave1.nxc"
13	181	241		set __D0Drive, 10
13	180	244	#line 180 "D:\NXT Programok\Slave1.nxc"
13	181	244		strsubset __strretvalDrive, __strbufDrive, __signed_stack_001Drive, __D0Drive
13	180	249	#line 180 "D:\NXT Programok\Slave1.nxc"
13	181	249		strcat __strbufDrive, __strretvalDrive
13	181	253	#line 181 "D:\NXT Programok\Slave1.nxc"
13	182	253		strtonum RB, __signed_stack_001Drive, __strbufDrive, 65535, 65535
13	181	259	#line 181 "D:\NXT Programok\Slave1.nxc"
13	181	259	#line 181 "D:\NXT Programok\Slave1.nxc"
13	181	259	#line 181 "D:\NXT Programok\Slave1.nxc"
13	182	259		strcat __strbufDrive, __Drive_7qG2_in_7qG2_000
13	181	263	#line 181 "D:\NXT Programok\Slave1.nxc"
13	182	263		set __signed_stack_001Drive, 12
13	181	266	#line 181 "D:\NXT Programok\Slave1.nxc"
13	181	266	#line 181 "D:\NXT Programok\Slave1.nxc"
13	182	266		set __D0Drive, 16
13	181	269	#line 181 "D:\NXT Programok\Slave1.nxc"
13	182	269		strsubset __strretvalDrive, __strbufDrive, __signed_stack_001Drive, __D0Drive
13	181	274	#line 181 "D:\NXT Programok\Slave1.nxc"
13	182	274		strcat __strbufDrive, __strretvalDrive
13	183	278	#line 183 "D:\NXT Programok\Slave1.nxc"
13	183	278	#line 183 "D:\NXT Programok\Slave1.nxc"
13	183	278	#line 183 "D:\NXT Programok\Slave1.nxc"
13	183	278	#line 183 "D:\NXT Programok\Slave1.nxc"
13	184	278		set __signed_stack_001Drive, 0
13	183	281	#line 183 "D:\NXT Programok\Slave1.nxc"
13	183	281	#line 183 "D:\NXT Programok\Slave1.nxc"
13	184	281		set __signed_stack_002Drive, 48
13	183	284	#line 183 "D:\NXT Programok\Slave1.nxc"
13	183	284	#line 183 "D:\NXT Programok\Slave1.nxc"
13	184	284		mov __ArrHelper__Drive_244_0, __constStr0015
13	183	286	#line 183 "D:\NXT Programok\Slave1.nxc"
13	184	286		mov __D0Drive, RA
13	183	288	#line 183 "D:\NXT Programok\Slave1.nxc"
13	184	288		numtostr __strretvalDrive, __D0Drive
13	183	291	#line 183 "D:\NXT Programok\Slave1.nxc"
13	184	291		strcat __strbufDrive, __strretvalDrive
13	183	295	#line 183 "D:\NXT Programok\Slave1.nxc"
13	184	295		mov __ArrHelper__Drive_244_1, __strbufDrive
13	183	297	#line 183 "D:\NXT Programok\Slave1.nxc"
13	184	297		strcat __strbufDrive, __ArrHelper__Drive_244_0, __ArrHelper__Drive_244_1
13	184	302	#line 184 "D:\NXT Programok\Slave1.nxc"
13	185	302		acquire __TextOutMutex
13	184	303	#line 184 "D:\NXT Programok\Slave1.nxc"
13	185	303		mov __TextOutArgs.Location.X, __signed_stack_001Drive
13	184	306	#line 184 "D:\NXT Programok\Slave1.nxc"
13	185	306		mov __TextOutArgs.Location.Y, __signed_stack_002Drive
13	184	309	#line 184 "D:\NXT Programok\Slave1.nxc"
13	185	309		set __TextOutArgs.Options, 0
13	184	312	#line 184 "D:\NXT Programok\Slave1.nxc"
13	185	312		mov __TextOutArgs.Text, __strbufDrive
13	184	314	#line 184 "D:\NXT Programok\Slave1.nxc"
13	185	314		syscall 13, __TextOutArgs
13	184	317	#line 184 "D:\NXT Programok\Slave1.nxc"
13	185	317		mov __D0Drive, __TextOutArgs.Result
13	184	320	#line 184 "D:\NXT Programok\Slave1.nxc"
13	185	320		release __TextOutMutex
13	184	321	#line 184 "D:\NXT Programok\Slave1.nxc"
13	184	321	#line 184 "D:\NXT Programok\Slave1.nxc"
13	185	321		set __signed_stack_001Drive, 0
13	184	324	#line 184 "D:\NXT Programok\Slave1.nxc"
13	184	324	#line 184 "D:\NXT Programok\Slave1.nxc"
13	185	324		set __signed_stack_002Drive, 40
13	184	327	#line 184 "D:\NXT Programok\Slave1.nxc"
13	184	327	#line 184 "D:\NXT Programok\Slave1.nxc"
13	185	327		mov __ArrHelper__Drive_244_0, __constStr0016
13	184	329	#line 184 "D:\NXT Programok\Slave1.nxc"
13	185	329		mov __D0Drive, RB
13	184	331	#line 184 "D:\NXT Programok\Slave1.nxc"
13	185	331		numtostr __strretvalDrive, __D0Drive
13	184	334	#line 184 "D:\NXT Programok\Slave1.nxc"
13	185	334		strcat __strbufDrive, __strretvalDrive
13	184	338	#line 184 "D:\NXT Programok\Slave1.nxc"
13	185	338		mov __ArrHelper__Drive_244_1, __strbufDrive
13	184	340	#line 184 "D:\NXT Programok\Slave1.nxc"
13	185	340		strcat __strbufDrive, __ArrHelper__Drive_244_0, __ArrHelper__Drive_244_1
13	185	345	#line 185 "D:\NXT Programok\Slave1.nxc"
13	186	345		acquire __TextOutMutex
13	185	346	#line 185 "D:\NXT Programok\Slave1.nxc"
13	186	346		mov __TextOutArgs.Location.X, __signed_stack_001Drive
13	185	349	#line 185 "D:\NXT Programok\Slave1.nxc"
13	186	349		mov __TextOutArgs.Location.Y, __signed_stack_002Drive
13	185	352	#line 185 "D:\NXT Programok\Slave1.nxc"
13	186	352		set __TextOutArgs.Options, 0
13	185	355	#line 185 "D:\NXT Programok\Slave1.nxc"
13	186	355		mov __TextOutArgs.Text, __strbufDrive
13	185	357	#line 185 "D:\NXT Programok\Slave1.nxc"
13	186	357		syscall 13, __TextOutArgs
13	185	360	#line 185 "D:\NXT Programok\Slave1.nxc"
13	186	360		mov __D0Drive, __TextOutArgs.Result
13	185	363	#line 185 "D:\NXT Programok\Slave1.nxc"
13	186	363		release __TextOutMutex
13	185	364	#line 185 "D:\NXT Programok\Slave1.nxc"
13	188	364	#line 188 "D:\NXT Programok\Slave1.nxc"
13	189	364		strcat __strbufDrive, __constStr0017
13	188	368	#line 188 "D:\NXT Programok\Slave1.nxc"
13	189	368		mov __Drive_7qG2_in_7qG2_000, __strbufDrive
13	188	370	#line 188 "D:\NXT Programok\Slave1.nxc"
13	188	370	#line 188 "D:\NXT Programok\Slave1.nxc"
13	188	370	#line 188 "D:\NXT Programok\Slave1.nxc"
13	189	370	#line 189 "D:\NXT Programok\Slave1.nxc"
13	189	370	#line 189 "D:\NXT Programok\Slave1.nxc"
13	190	370		add A_Memory, A_Memory, RA
13	189	374	#line 189 "D:\NXT Programok\Slave1.nxc"
13	189	374	#line 189 "D:\NXT Programok\Slave1.nxc"
13	189	374	#line 189 "D:\NXT Programok\Slave1.nxc"
13	189	374	#line 189 "D:\NXT Programok\Slave1.nxc"
13	190	374	#line 190 "D:\NXT Programok\Slave1.nxc"
13	190	374	#line 190 "D:\NXT Programok\Slave1.nxc"
13	191	374		add B_Memory, B_Memory, RB
13	190	378	#line 190 "D:\NXT Programok\Slave1.nxc"
13	190	378	#line 190 "D:\NXT Programok\Slave1.nxc"
13	190	378	#line 190 "D:\NXT Programok\Slave1.nxc"
13	190	378	#line 190 "D:\NXT Programok\Slave1.nxc"
13	193	378	#line 193 "D:\NXT Programok\Slave1.nxc"
13	193	378	#line 193 "D:\NXT Programok\Slave1.nxc"
13	193	378	#line 193 "D:\NXT Programok\Slave1.nxc"
13	193	378	#line 193 "D:\NXT Programok\Slave1.nxc"
13	193	378	#line 193 "D:\NXT Programok\Slave1.nxc"
13	194	378		mov __signed_stack_001Drive, RA
13	193	380	#line 193 "D:\NXT Programok\Slave1.nxc"
13	193	380	#line 193 "D:\NXT Programok\Slave1.nxc"
13	194	380		set __D0Drive, 0
13	193	383	#line 193 "D:\NXT Programok\Slave1.nxc"
13	194	383		cmp 5, __zfDrive, __signed_stack_001Drive, __D0Drive
13	193	387	#line 193 "D:\NXT Programok\Slave1.nxc"
13	194	387		mov __D0Drive, __zfDrive
13	193	390	#line 193 "D:\NXT Programok\Slave1.nxc"
13	194	390		brtst 5, __NXC_Label_768, __zfDrive
13	193	393	#line 193 "D:\NXT Programok\Slave1.nxc"
13	194	393		mov __signed_stack_001Drive, __D0Drive
13	193	395	#line 193 "D:\NXT Programok\Slave1.nxc"
13	194	395		mov __signed_stack_002Drive, RB
13	193	397	#line 193 "D:\NXT Programok\Slave1.nxc"
13	194	397	#line 194 "D:\NXT Programok\Slave1.nxc"
13	195	397		set __D0Drive, 0
13	194	400	#line 194 "D:\NXT Programok\Slave1.nxc"
13	195	400		cmp 5, __zfDrive, __signed_stack_002Drive, __D0Drive
13	194	404	#line 194 "D:\NXT Programok\Slave1.nxc"
13	194	404	#line 194 "D:\NXT Programok\Slave1.nxc"
13	195	404		or __D0Drive, __signed_stack_001Drive, __zfDrive
13	194	408	#line 194 "D:\NXT Programok\Slave1.nxc"
13	195	408		tst 5, __zfDrive, __D0Drive
13	194	411	#line 194 "D:\NXT Programok\Slave1.nxc"
13	195	411		brtst 4, __NXC_Label_771, __zfDrive
13	194	414	#line 194 "D:\NXT Programok\Slave1.nxc"
13	195	414		set __signed_stack_001Drive, 0
13	194	417	#line 194 "D:\NXT Programok\Slave1.nxc"
13	194	417	#line 194 "D:\NXT Programok\Slave1.nxc"
13	195	417		set __signed_stack_002Drive, 32
13	194	420	#line 194 "D:\NXT Programok\Slave1.nxc"
13	194	420	#line 194 "D:\NXT Programok\Slave1.nxc"
13	195	420		strcat __strbufDrive, __constStr0018
13	195	424	#line 195 "D:\NXT Programok\Slave1.nxc"
13	196	424		acquire __TextOutMutex
13	195	425	#line 195 "D:\NXT Programok\Slave1.nxc"
13	196	425		mov __TextOutArgs.Location.X, __signed_stack_001Drive
13	195	428	#line 195 "D:\NXT Programok\Slave1.nxc"
13	196	428		mov __TextOutArgs.Location.Y, __signed_stack_002Drive
13	195	431	#line 195 "D:\NXT Programok\Slave1.nxc"
13	196	431		set __TextOutArgs.Options, 0
13	195	434	#line 195 "D:\NXT Programok\Slave1.nxc"
13	196	434		mov __TextOutArgs.Text, __strbufDrive
13	195	436	#line 195 "D:\NXT Programok\Slave1.nxc"
13	196	436		syscall 13, __TextOutArgs
13	195	439	#line 195 "D:\NXT Programok\Slave1.nxc"
13	196	439		mov __D0Drive, __TextOutArgs.Result
13	195	442	#line 195 "D:\NXT Programok\Slave1.nxc"
13	196	442		release __TextOutMutex
13	195	443	#line 195 "D:\NXT Programok\Slave1.nxc"
13	195	443	#line 195 "D:\NXT Programok\Slave1.nxc"
13	196	443		mov __signed_stack_001Drive, RA
13	195	445	#line 195 "D:\NXT Programok\Slave1.nxc"
13	196	445	#line 196 "D:\NXT Programok\Slave1.nxc"
13	197	445		mov __D0Drive, RB
13	196	447	#line 196 "D:\NXT Programok\Slave1.nxc"
13	197	447		cmp 4, __zfDrive, __signed_stack_001Drive, __D0Drive
13	196	451	#line 196 "D:\NXT Programok\Slave1.nxc"
13	197	451		mov __D0Drive, __zfDrive
13	198	454	#line 198 "D:\NXT Programok\Slave1.nxc"
13	199	454		brtst 4, __NXC_Label_778, __zfDrive
13	199	457	#line 199 "D:\NXT Programok\Slave1.nxc"
13	200	457		subcall __MotorAB_Spawner, __MotorAB_Spawner_return
13	199	459	#line 199 "D:\NXT Programok\Slave1.nxc"
13	201	459	#line 201 "D:\NXT Programok\Slave1.nxc"
13	202	459		jmp __NXC_Label_779
13	201	461	#line 201 "D:\NXT Programok\Slave1.nxc"
13	202	461		mov __D0Drive, RA
13	201	463	#line 201 "D:\NXT Programok\Slave1.nxc"
13	202	463		abs __signed_stack_001Drive, __D0Drive
13	201	466	#line 201 "D:\NXT Programok\Slave1.nxc"
13	201	466	#line 201 "D:\NXT Programok\Slave1.nxc"
13	202	466		mov __D0Drive, RB
13	201	468	#line 201 "D:\NXT Programok\Slave1.nxc"
13	202	468		abs __D0Drive, __D0Drive
13	201	471	#line 201 "D:\NXT Programok\Slave1.nxc"
13	202	471		cmp 4, __zfDrive, __signed_stack_001Drive, __D0Drive
13	201	475	#line 201 "D:\NXT Programok\Slave1.nxc"
13	202	475		mov __D0Drive, __zfDrive
13	202	478	#line 202 "D:\NXT Programok\Slave1.nxc"
13	203	478		brtst 4, __NXC_Label_786, __zfDrive
13	203	481	#line 203 "D:\NXT Programok\Slave1.nxc"
13	204	481		subcall __MotorABInverse_Spawner, __MotorABInverse_Spawner_return
13	203	483	#line 203 "D:\NXT Programok\Slave1.nxc"
13	205	483	#line 205 "D:\NXT Programok\Slave1.nxc"
13	206	483		jmp __NXC_Label_787
13	206	485	#line 206 "D:\NXT Programok\Slave1.nxc"
13	207	485		subcall __MotorA_Spawner, __MotorA_Spawner_return
13	206	487	#line 206 "D:\NXT Programok\Slave1.nxc"
13	207	487	#line 207 "D:\NXT Programok\Slave1.nxc"
13	208	487		subcall __MotorB_Spawner, __MotorB_Spawner_return
13	207	489	#line 207 "D:\NXT Programok\Slave1.nxc"
13	209	489	#line 209 "D:\NXT Programok\Slave1.nxc"
13	216	489	#line 216 "D:\NXT Programok\Slave1.nxc"
13	216	489	#line 216 "D:\NXT Programok\Slave1.nxc"
13	216	489	#line 216 "D:\NXT Programok\Slave1.nxc"
13	217	489		mov __unsigned_stack_001Drive, A_Done
13	216	491	#line 216 "D:\NXT Programok\Slave1.nxc"
13	216	491	#line 216 "D:\NXT Programok\Slave1.nxc"
13	217	491		set __D0Drive, 1
13	216	494	#line 216 "D:\NXT Programok\Slave1.nxc"
13	217	494		cmp 4, __zfDrive, __unsigned_stack_001Drive, __D0Drive
13	216	498	#line 216 "D:\NXT Programok\Slave1.nxc"
13	217	498		mov __D0Drive, __zfDrive
13	216	501	#line 216 "D:\NXT Programok\Slave1.nxc"
13	217	501		brtst 4, __NXC_Label_793, __zfDrive
13	216	504	#line 216 "D:\NXT Programok\Slave1.nxc"
13	217	504		mov __signed_stack_001Drive, __D0Drive
13	216	506	#line 216 "D:\NXT Programok\Slave1.nxc"
13	217	506		mov __unsigned_stack_002Drive, B_Done
13	216	508	#line 216 "D:\NXT Programok\Slave1.nxc"
13	216	508	#line 216 "D:\NXT Programok\Slave1.nxc"
13	217	508		set __D0Drive, 1
13	216	511	#line 216 "D:\NXT Programok\Slave1.nxc"
13	217	511		cmp 4, __zfDrive, __unsigned_stack_002Drive, __D0Drive
13	216	515	#line 216 "D:\NXT Programok\Slave1.nxc"
13	216	515	#line 216 "D:\NXT Programok\Slave1.nxc"
13	217	515		and __D0Drive, __signed_stack_001Drive, __zfDrive
13	216	519	#line 216 "D:\NXT Programok\Slave1.nxc"
13	217	519		not __D0Drive, __D0Drive
13	217	522	#line 217 "D:\NXT Programok\Slave1.nxc"
13	218	522		tst 5, __zfDrive, __D0Drive
13	217	525	#line 217 "D:\NXT Programok\Slave1.nxc"
13	218	525		brtst 4, __NXC_Label_789, __zfDrive
13	217	528	#line 217 "D:\NXT Programok\Slave1.nxc"
13	217	528	#line 217 "D:\NXT Programok\Slave1.nxc"
13	218	528		jmp __NXC_Label_788
13	217	530	#line 217 "D:\NXT Programok\Slave1.nxc"
13	218	530	#line 218 "D:\NXT Programok\Slave1.nxc"
13	219	530		set A_Done, 0
13	218	533	#line 218 "D:\NXT Programok\Slave1.nxc"
13	218	533	#line 218 "D:\NXT Programok\Slave1.nxc"
13	219	533	#line 219 "D:\NXT Programok\Slave1.nxc"
13	220	533		set B_Done, 0
13	219	536	#line 219 "D:\NXT Programok\Slave1.nxc"
13	219	536	#line 219 "D:\NXT Programok\Slave1.nxc"
13	219	536	#line 219 "D:\NXT Programok\Slave1.nxc"
13	220	536		set __ClearLine_7qG2_line_7qG2_000_inline_Drive, 32
13	219	539	#line 219 "D:\NXT Programok\Slave1.nxc"
13	6076	539	#line 6076 "NXCDefs.h"
13	6077	539	#pragma macro 7
13	6077	539		acquire __TextOutMutex
13	6077	540		mov __TextOutArgs.Location.X, __constVal0
13	6077	542		mov __TextOutArgs.Location.Y, __ClearLine_7qG2_line_7qG2_000_inline_Drive
13	6077	544		mov __TextOutArgs.Options, __constVal0
13	6077	546		mov __TextOutArgs.Text, __BlankLine
13	6077	548		syscall 13, __TextOutArgs
13	6077	551		release __TextOutMutex
13	8456	552	#line 8456 "NXCDefs.h"
13	6076	552	#line 6076 "NXCDefs.h"
13	220	552	#line 220 "D:\NXT Programok\Slave1.nxc"
13	220	552	#line 220 "D:\NXT Programok\Slave1.nxc"
13	221	552		set __signed_stack_001Drive, 0
13	220	555	#line 220 "D:\NXT Programok\Slave1.nxc"
13	220	555	#line 220 "D:\NXT Programok\Slave1.nxc"
13	221	555		set __signed_stack_002Drive, 32
13	220	558	#line 220 "D:\NXT Programok\Slave1.nxc"
13	220	558	#line 220 "D:\NXT Programok\Slave1.nxc"
13	221	558		strcat __strbufDrive, __constStr0019
13	223	562	#line 223 "D:\NXT Programok\Slave1.nxc"
13	224	562		acquire __TextOutMutex
13	223	563	#line 223 "D:\NXT Programok\Slave1.nxc"
13	224	563		mov __TextOutArgs.Location.X, __signed_stack_001Drive
13	223	566	#line 223 "D:\NXT Programok\Slave1.nxc"
13	224	566		mov __TextOutArgs.Location.Y, __signed_stack_002Drive
13	223	569	#line 223 "D:\NXT Programok\Slave1.nxc"
13	224	569		set __TextOutArgs.Options, 0
13	223	572	#line 223 "D:\NXT Programok\Slave1.nxc"
13	224	572		mov __TextOutArgs.Text, __strbufDrive
13	223	574	#line 223 "D:\NXT Programok\Slave1.nxc"
13	224	574		syscall 13, __TextOutArgs
13	223	577	#line 223 "D:\NXT Programok\Slave1.nxc"
13	224	577		mov __D0Drive, __TextOutArgs.Result
13	223	580	#line 223 "D:\NXT Programok\Slave1.nxc"
13	224	580		release __TextOutMutex
13	223	581	#line 223 "D:\NXT Programok\Slave1.nxc"
13	223	581	#line 223 "D:\NXT Programok\Slave1.nxc"
13	224	581		strcat __strbufDrive, __constStr0010
13	223	585	#line 223 "D:\NXT Programok\Slave1.nxc"
13	224	585		mov __MotorRealPosition_7qG2_Port_7qG2_000, __strbufDrive
13	224	587	#line 224 "D:\NXT Programok\Slave1.nxc"
13	225	587		subcall MotorRealPosition, __MotorRealPosition_return
13	224	589	#line 224 "D:\NXT Programok\Slave1.nxc"
13	225	589		mov realTurn, __D0MotorRealPosition
13	224	591	#line 224 "D:\NXT Programok\Slave1.nxc"
13	224	591	#line 224 "D:\NXT Programok\Slave1.nxc"
13	224	591	#line 224 "D:\NXT Programok\Slave1.nxc"
13	224	591	#line 224 "D:\NXT Programok\Slave1.nxc"
13	224	591	#line 224 "D:\NXT Programok\Slave1.nxc"
13	224	591	#line 224 "D:\NXT Programok\Slave1.nxc"
13	225	591		sub __signed_stack_001Drive, A_Memory, realTurn
13	224	595	#line 224 "D:\NXT Programok\Slave1.nxc"
13	224	595	#line 224 "D:\NXT Programok\Slave1.nxc"
13	225	595		set __signed_stack_002Drive, 0
13	224	598	#line 224 "D:\NXT Programok\Slave1.nxc"
13	224	598	#line 224 "D:\NXT Programok\Slave1.nxc"
13	224	598	#line 224 "D:\NXT Programok\Slave1.nxc"
13	224	598	#line 224 "D:\NXT Programok\Slave1.nxc"
13	224	598	#line 224 "D:\NXT Programok\Slave1.nxc"
13	225	598		mul __D0Drive, __constVal1, Tolerance
13	224	602	#line 224 "D:\NXT Programok\Slave1.nxc"
13	225	602		sub __D0Drive, __signed_stack_002Drive, __D0Drive
13	224	606	#line 224 "D:\NXT Programok\Slave1.nxc"
13	225	606		cmp 0, __zfDrive, __signed_stack_001Drive, __D0Drive
13	224	610	#line 224 "D:\NXT Programok\Slave1.nxc"
13	225	610		mov __D0Drive, __zfDrive
13	224	613	#line 224 "D:\NXT Programok\Slave1.nxc"
13	225	613		brtst 5, __NXC_Label_808, __zfDrive
13	224	616	#line 224 "D:\NXT Programok\Slave1.nxc"
13	225	616		mov __signed_stack_001Drive, __D0Drive
13	224	618	#line 224 "D:\NXT Programok\Slave1.nxc"
13	224	618	#line 224 "D:\NXT Programok\Slave1.nxc"
13	224	618	#line 224 "D:\NXT Programok\Slave1.nxc"
13	224	618	#line 224 "D:\NXT Programok\Slave1.nxc"
13	225	618		sub __signed_stack_002Drive, A_Memory, realTurn
13	224	622	#line 224 "D:\NXT Programok\Slave1.nxc"
13	224	622	#line 224 "D:\NXT Programok\Slave1.nxc"
13	225	622		mov __D0Drive, Tolerance
13	224	624	#line 224 "D:\NXT Programok\Slave1.nxc"
13	225	624		cmp 1, __zfDrive, __signed_stack_002Drive, __D0Drive
13	224	628	#line 224 "D:\NXT Programok\Slave1.nxc"
13	224	628	#line 224 "D:\NXT Programok\Slave1.nxc"
13	225	628		or __D0Drive, __signed_stack_001Drive, __zfDrive
13	225	632	#line 225 "D:\NXT Programok\Slave1.nxc"
13	226	632		tst 5, __zfDrive, __D0Drive
13	225	635	#line 225 "D:\NXT Programok\Slave1.nxc"
13	226	635		brtst 4, __NXC_Label_807, __zfDrive
13	225	638	#line 225 "D:\NXT Programok\Slave1.nxc"
13	226	638		set __signed_stack_001Drive, 20
13	225	641	#line 225 "D:\NXT Programok\Slave1.nxc"
13	225	641	#line 225 "D:\NXT Programok\Slave1.nxc"
13	225	641	#line 225 "D:\NXT Programok\Slave1.nxc"
13	225	641	#line 225 "D:\NXT Programok\Slave1.nxc"
13	225	641	#line 225 "D:\NXT Programok\Slave1.nxc"
13	226	641		sub __signed_stack_002Drive, A_Memory, realTurn
13	225	645	#line 225 "D:\NXT Programok\Slave1.nxc"
13	225	645	#line 225 "D:\NXT Programok\Slave1.nxc"
13	226	645		set __signed_stack_003Drive, 90
13	225	648	#line 225 "D:\NXT Programok\Slave1.nxc"
13	225	648	#line 225 "D:\NXT Programok\Slave1.nxc"
13	226	648		set __signed_stack_004Drive, 40
13	225	651	#line 225 "D:\NXT Programok\Slave1.nxc"
13	225	651	#line 225 "D:\NXT Programok\Slave1.nxc"
13	226	651		set __D0Drive, 50
13	226	654	#line 226 "D:\NXT Programok\Slave1.nxc"
13	227	654	#pragma macro 33
13	227	654		acquire __rotateMutex0
13	227	655		arrbuild __rotate_ports0, __constVal0
13	227	659		mov __rotate_power0, __signed_stack_001Drive
13	227	661		mov __rotate_angle0, __signed_stack_002Drive
13	227	663		mov __rotate_turnpct0, __constVal0
13	227	665		mov __rotate_sync0, __constVal0
13	227	667		mov __rotate_stop0, __constVal1
13	227	669		mov __rotate_theRVP0, __signed_stack_003Drive
13	227	672		mov __rotate_theRVI0, __signed_stack_004Drive
13	227	675		mov __rotate_theRVD0, __D0Drive
13	227	677		subcall __RotateMotor0, ____RotateMotor0_return
13	227	680		release __rotateMutex0
13	8600	681	#line 8600 "D:\NXT Programok\Slave1.nxc"
13	226	681	#line 226 "D:\NXT Programok\Slave1.nxc"
13	226	681	#line 226 "D:\NXT Programok\Slave1.nxc"
13	227	681		strcat __strbufDrive, __constStr0010
13	226	685	#line 226 "D:\NXT Programok\Slave1.nxc"
13	227	685		mov __MotorRealPosition_7qG2_Port_7qG2_000, __strbufDrive
13	227	687	#line 227 "D:\NXT Programok\Slave1.nxc"
13	228	687		subcall MotorRealPosition, __MotorRealPosition_return
13	227	689	#line 227 "D:\NXT Programok\Slave1.nxc"
13	228	689		mov realTurn, __D0MotorRealPosition
13	227	691	#line 227 "D:\NXT Programok\Slave1.nxc"
13	227	691	#line 227 "D:\NXT Programok\Slave1.nxc"
13	228	691	#line 228 "D:\NXT Programok\Slave1.nxc"
13	229	691		jmp __NXC_Label_806
13	228	693	#line 228 "D:\NXT Programok\Slave1.nxc"
13	228	693	#line 228 "D:\NXT Programok\Slave1.nxc"
13	229	693		strcat __strbufDrive, __constStr0011
13	228	697	#line 228 "D:\NXT Programok\Slave1.nxc"
13	229	697		mov __MotorRealPosition_7qG2_Port_7qG2_000, __strbufDrive
13	229	699	#line 229 "D:\NXT Programok\Slave1.nxc"
13	230	699		subcall MotorRealPosition, __MotorRealPosition_return
13	229	701	#line 229 "D:\NXT Programok\Slave1.nxc"
13	230	701		mov realTurn, __D0MotorRealPosition
13	229	703	#line 229 "D:\NXT Programok\Slave1.nxc"
13	229	703	#line 229 "D:\NXT Programok\Slave1.nxc"
13	229	703	#line 229 "D:\NXT Programok\Slave1.nxc"
13	229	703	#line 229 "D:\NXT Programok\Slave1.nxc"
13	229	703	#line 229 "D:\NXT Programok\Slave1.nxc"
13	229	703	#line 229 "D:\NXT Programok\Slave1.nxc"
13	230	703		sub __signed_stack_001Drive, B_Memory, realTurn
13	229	707	#line 229 "D:\NXT Programok\Slave1.nxc"
13	229	707	#line 229 "D:\NXT Programok\Slave1.nxc"
13	230	707		set __signed_stack_002Drive, 0
13	229	710	#line 229 "D:\NXT Programok\Slave1.nxc"
13	229	710	#line 229 "D:\NXT Programok\Slave1.nxc"
13	229	710	#line 229 "D:\NXT Programok\Slave1.nxc"
13	229	710	#line 229 "D:\NXT Programok\Slave1.nxc"
13	229	710	#line 229 "D:\NXT Programok\Slave1.nxc"
13	230	710		mul __D0Drive, __constVal1, Tolerance
13	229	714	#line 229 "D:\NXT Programok\Slave1.nxc"
13	230	714		sub __D0Drive, __signed_stack_002Drive, __D0Drive
13	229	718	#line 229 "D:\NXT Programok\Slave1.nxc"
13	230	718		cmp 0, __zfDrive, __signed_stack_001Drive, __D0Drive
13	229	722	#line 229 "D:\NXT Programok\Slave1.nxc"
13	230	722		mov __D0Drive, __zfDrive
13	229	725	#line 229 "D:\NXT Programok\Slave1.nxc"
13	230	725		brtst 5, __NXC_Label_831, __zfDrive
13	229	728	#line 229 "D:\NXT Programok\Slave1.nxc"
13	230	728		mov __signed_stack_001Drive, __D0Drive
13	229	730	#line 229 "D:\NXT Programok\Slave1.nxc"
13	229	730	#line 229 "D:\NXT Programok\Slave1.nxc"
13	229	730	#line 229 "D:\NXT Programok\Slave1.nxc"
13	229	730	#line 229 "D:\NXT Programok\Slave1.nxc"
13	230	730		sub __signed_stack_002Drive, B_Memory, realTurn
13	229	734	#line 229 "D:\NXT Programok\Slave1.nxc"
13	229	734	#line 229 "D:\NXT Programok\Slave1.nxc"
13	230	734		mov __D0Drive, Tolerance
13	229	736	#line 229 "D:\NXT Programok\Slave1.nxc"
13	230	736		cmp 1, __zfDrive, __signed_stack_002Drive, __D0Drive
13	229	740	#line 229 "D:\NXT Programok\Slave1.nxc"
13	229	740	#line 229 "D:\NXT Programok\Slave1.nxc"
13	230	740		or __D0Drive, __signed_stack_001Drive, __zfDrive
13	230	744	#line 230 "D:\NXT Programok\Slave1.nxc"
13	231	744		tst 5, __zfDrive, __D0Drive
13	230	747	#line 230 "D:\NXT Programok\Slave1.nxc"
13	231	747		brtst 4, __NXC_Label_830, __zfDrive
13	230	750	#line 230 "D:\NXT Programok\Slave1.nxc"
13	231	750		set __signed_stack_001Drive, 15
13	230	753	#line 230 "D:\NXT Programok\Slave1.nxc"
13	230	753	#line 230 "D:\NXT Programok\Slave1.nxc"
13	230	753	#line 230 "D:\NXT Programok\Slave1.nxc"
13	230	753	#line 230 "D:\NXT Programok\Slave1.nxc"
13	230	753	#line 230 "D:\NXT Programok\Slave1.nxc"
13	231	753		sub __signed_stack_002Drive, B_Memory, realTurn
13	230	757	#line 230 "D:\NXT Programok\Slave1.nxc"
13	230	757	#line 230 "D:\NXT Programok\Slave1.nxc"
13	231	757		set __signed_stack_003Drive, 90
13	230	760	#line 230 "D:\NXT Programok\Slave1.nxc"
13	230	760	#line 230 "D:\NXT Programok\Slave1.nxc"
13	231	760		set __signed_stack_004Drive, 40
13	230	763	#line 230 "D:\NXT Programok\Slave1.nxc"
13	230	763	#line 230 "D:\NXT Programok\Slave1.nxc"
13	231	763		set __D0Drive, 50
13	231	766	#line 231 "D:\NXT Programok\Slave1.nxc"
13	232	766	#pragma macro 33
13	232	766		acquire __rotateMutex1
13	232	767		arrbuild __rotate_ports1, __constVal1
13	232	771		mov __rotate_power1, __signed_stack_001Drive
13	232	773		mov __rotate_angle1, __signed_stack_002Drive
13	232	775		mov __rotate_turnpct1, __constVal0
13	232	777		mov __rotate_sync1, __constVal0
13	232	779		mov __rotate_stop1, __constVal1
13	232	781		mov __rotate_theRVP1, __signed_stack_003Drive
13	232	783		mov __rotate_theRVI1, __signed_stack_004Drive
13	232	785		mov __rotate_theRVD1, __D0Drive
13	232	787		subcall __RotateMotor1, ____RotateMotor1_return
13	232	790		release __rotateMutex1
13	8729	791	#line 8729 "D:\NXT Programok\Slave1.nxc"
13	231	791	#line 231 "D:\NXT Programok\Slave1.nxc"
13	231	791	#line 231 "D:\NXT Programok\Slave1.nxc"
13	232	791		strcat __strbufDrive, __constStr0011
13	231	795	#line 231 "D:\NXT Programok\Slave1.nxc"
13	232	795		mov __MotorRealPosition_7qG2_Port_7qG2_000, __strbufDrive
13	232	797	#line 232 "D:\NXT Programok\Slave1.nxc"
13	233	797		subcall MotorRealPosition, __MotorRealPosition_return
13	232	799	#line 232 "D:\NXT Programok\Slave1.nxc"
13	233	799		mov realTurn, __D0MotorRealPosition
13	232	801	#line 232 "D:\NXT Programok\Slave1.nxc"
13	232	801	#line 232 "D:\NXT Programok\Slave1.nxc"
13	235	801	#line 235 "D:\NXT Programok\Slave1.nxc"
13	236	801		jmp __NXC_Label_829
13	235	803	#line 235 "D:\NXT Programok\Slave1.nxc"
13	235	803	#line 235 "D:\NXT Programok\Slave1.nxc"
13	236	803	#pragma macro 7
13	236	803		acquire __MWMutex
13	236	804		add __MWArgs.QueueID, __constVal2, __constVal10
13	236	808		mov __SRNTmpVal, endProcess
13	236	810		flatten __MWArgs.Message, __SRNTmpVal
13	236	813		syscall 26, __MWArgs
13	236	816		mov __D0Drive, __MWArgs.Result
13	236	819		release __MWMutex
13	8749	820	#line 8749 "D:\NXT Programok\Slave1.nxc"
13	235	820	#line 235 "D:\NXT Programok\Slave1.nxc"
13	235	820	#line 235 "D:\NXT Programok\Slave1.nxc"
13	237	820	#line 237 "D:\NXT Programok\Slave1.nxc"
13	238	820		set free, 1
13	237	823	#line 237 "D:\NXT Programok\Slave1.nxc"
13	237	823	#line 237 "D:\NXT Programok\Slave1.nxc"
13	238	823	#line 238 "D:\NXT Programok\Slave1.nxc"
13	239	823		subcall __LedGreen_Spawner, __LedGreen_Spawner_return
13	238	825	#line 238 "D:\NXT Programok\Slave1.nxc"
13	238	825	#line 238 "D:\NXT Programok\Slave1.nxc"
13	239	825		set __ClearLine_7qG2_line_7qG2_000_inline_Drive, 32
13	238	828	#line 238 "D:\NXT Programok\Slave1.nxc"
13	6076	828	#line 6076 "NXCDefs.h"
13	6077	828	#pragma macro 7
13	6077	828		acquire __TextOutMutex
13	6077	829		mov __TextOutArgs.Location.X, __constVal0
13	6077	831		mov __TextOutArgs.Location.Y, __ClearLine_7qG2_line_7qG2_000_inline_Drive
13	6077	833		mov __TextOutArgs.Options, __constVal0
13	6077	835		mov __TextOutArgs.Text, __BlankLine
13	6077	837		syscall 13, __TextOutArgs
13	6077	840		release __TextOutMutex
13	8769	841	#line 8769 "NXCDefs.h"
13	6076	841	#line 6076 "NXCDefs.h"
13	239	841	#line 239 "D:\NXT Programok\Slave1.nxc"
13	239	841	#line 239 "D:\NXT Programok\Slave1.nxc"
13	240	841		set __signed_stack_001Drive, 0
13	239	844	#line 239 "D:\NXT Programok\Slave1.nxc"
13	239	844	#line 239 "D:\NXT Programok\Slave1.nxc"
13	240	844		set __signed_stack_002Drive, 32
13	239	847	#line 239 "D:\NXT Programok\Slave1.nxc"
13	239	847	#line 239 "D:\NXT Programok\Slave1.nxc"
13	240	847		strcat __strbufDrive, __constStr0020
13	240	851	#line 240 "D:\NXT Programok\Slave1.nxc"
13	241	851		acquire __TextOutMutex
13	240	852	#line 240 "D:\NXT Programok\Slave1.nxc"
13	241	852		mov __TextOutArgs.Location.X, __signed_stack_001Drive
13	240	855	#line 240 "D:\NXT Programok\Slave1.nxc"
13	241	855		mov __TextOutArgs.Location.Y, __signed_stack_002Drive
13	240	858	#line 240 "D:\NXT Programok\Slave1.nxc"
13	241	858		set __TextOutArgs.Options, 0
13	240	861	#line 240 "D:\NXT Programok\Slave1.nxc"
13	241	861		mov __TextOutArgs.Text, __strbufDrive
13	240	863	#line 240 "D:\NXT Programok\Slave1.nxc"
13	241	863		syscall 13, __TextOutArgs
13	240	866	#line 240 "D:\NXT Programok\Slave1.nxc"
13	241	866		mov __D0Drive, __TextOutArgs.Result
13	240	869	#line 240 "D:\NXT Programok\Slave1.nxc"
13	241	869		release __TextOutMutex
13	240	870	#line 240 "D:\NXT Programok\Slave1.nxc"
13	241	870	#line 241 "D:\NXT Programok\Slave1.nxc"
13	242	870	#pragma macro 7
13	242	870		setout __OUT_AB, 2, __constVal0, 1, __constVal3, 8, __constVal0, 6, __constVal32, 7, __constVal0, 5, __constVal0, 10, __constVal96, 11, __constVal32, 12, __constVal32, 0, __constVal63
13	8804	893	#line 8804 "D:\NXT Programok\Slave1.nxc"
13	241	893	#line 241 "D:\NXT Programok\Slave1.nxc"
13	241	893	#line 241 "D:\NXT Programok\Slave1.nxc"
13	242	893		set __signed_stack_001Drive, 0
13	241	896	#line 241 "D:\NXT Programok\Slave1.nxc"
13	241	896	#line 241 "D:\NXT Programok\Slave1.nxc"
13	242	896		set __signed_stack_002Drive, 0
13	241	899	#line 241 "D:\NXT Programok\Slave1.nxc"
13	241	899	#line 241 "D:\NXT Programok\Slave1.nxc"
13	242	899		strcat __strbufDrive, __constStr0021
13	244	903	#line 244 "D:\NXT Programok\Slave1.nxc"
13	245	903		acquire __TextOutMutex
13	244	904	#line 244 "D:\NXT Programok\Slave1.nxc"
13	245	904		mov __TextOutArgs.Location.X, __signed_stack_001Drive
13	244	907	#line 244 "D:\NXT Programok\Slave1.nxc"
13	245	907		mov __TextOutArgs.Location.Y, __signed_stack_002Drive
13	244	910	#line 244 "D:\NXT Programok\Slave1.nxc"
13	245	910		set __TextOutArgs.Options, 0
13	244	913	#line 244 "D:\NXT Programok\Slave1.nxc"
13	245	913		mov __TextOutArgs.Text, __strbufDrive
13	244	915	#line 244 "D:\NXT Programok\Slave1.nxc"
13	245	915		syscall 13, __TextOutArgs
13	244	918	#line 244 "D:\NXT Programok\Slave1.nxc"
13	245	918		mov __D0Drive, __TextOutArgs.Result
13	244	921	#line 244 "D:\NXT Programok\Slave1.nxc"
13	245	921		release __TextOutMutex
13	244	922	#line 244 "D:\NXT Programok\Slave1.nxc"
13	245	922	#line 245 "D:\NXT Programok\Slave1.nxc"
13	246	922		jmp __NXC_Label_862
13	247	924	#line 247 "D:\NXT Programok\Slave1.nxc"
13	248	924	#pragma macro 4
13	247	924	#line 247 "D:\NXT Programok\Slave1.nxc"
13	247	924	#line 247 "D:\NXT Programok\Slave1.nxc"
13	247	924		acquire __KeepAliveMutex
13	248	925		syscall 31, __KeepAliveArgs
13	249	928		mov __D0Drive, __KeepAliveArgs.Result
13	250	931		release __KeepAliveMutex
13	246	932	#line 246 "D:\NXT Programok\Slave1.nxc"
13	246	932	#line 246 "D:\NXT Programok\Slave1.nxc"
13	246	932	#line 246 "D:\NXT Programok\Slave1.nxc"
13	246	932	#line 246 "D:\NXT Programok\Slave1.nxc"
13	247	932	#line 247 "D:\NXT Programok\Slave1.nxc"
13	247	932	#line 247 "D:\NXT Programok\Slave1.nxc"
13	247	932	#line 247 "D:\NXT Programok\Slave1.nxc"
13	248	932		mov __Wait_7qG2_ms_7qG2_000_inline_Drive, CheckTime
13	247	934	#line 247 "D:\NXT Programok\Slave1.nxc"
13	7921	934	#line 7921 "NXCDefs.h"
13	7922	934		wait2 NA, __Wait_7qG2_ms_7qG2_000_inline_Drive
13	7921	937	#line 7921 "NXCDefs.h"
13	248	937	#line 248 "D:\NXT Programok\Slave1.nxc"
13	251	937	#line 251 "D:\NXT Programok\Slave1.nxc"
13	252	937		jmp __NXC_Label_713
13	251	939	#line 251 "D:\NXT Programok\Slave1.nxc"
13	252	939		exit -1, -1
14	0	0		subret __LedGreen_Spawner_return
15	0	0		exit 0, 1
16	0	0		subret __LedRed_Spawner_return
17	0	0		exit 0, 1
18	0	0		subret __MotorAB_Spawner_return
19	0	0		exit 0, 1
20	0	0		subret __MotorABInverse_Spawner_return
21	0	0		exit 0, 1
22	0	0		subret __MotorA_Spawner_return
23	0	0		exit 0, 1
24	0	0		subret __MotorB_Spawner_return
25	0	0		exit 0, 1
26	0	0		subret __Drive_Spawner_return
27	0	0		exit 0, 1
28	275	0	#line 275 "D:\NXT Programok\Slave1.nxc"
28	276	0		subret ____initialize_global_data_return
#CLUMPS
Clump	Name	Offset	File
0	main	0	D:\NXT Programok\Slave1.nxc
1	__RotateMotor0	230	NXTDefs.h
2	__RotateMotor1	399	NXTDefs.h
3	__RotateMotor3	568	NXTDefs.h
4	__ResetSensorSubroutine	737	NXTDefs.h
5	LedRed	750	D:\NXT Programok\Slave1.nxc
6	LedGreen	842	D:\NXT Programok\Slave1.nxc
7	BTCheck	983	D:\NXT Programok\Slave1.nxc
8	MotorAB	1056	D:\NXT Programok\Slave1.nxc
9	MotorABInverse	1114	D:\NXT Programok\Slave1.nxc
10	MotorA	1254	D:\NXT Programok\Slave1.nxc
11	MotorB	1298	D:\NXT Programok\Slave1.nxc
12	MotorRealPosition	1343	D:\NXT Programok\Slave1.nxc
13	Drive	1612	D:\NXT Programok\Slave1.nxc
14	__LedGreen_Returner	2554	D:\NXT Programok\Slave1.nxc
15	__LedGreen_Spawner	2556	D:\NXT Programok\Slave1.nxc
16	__LedRed_Returner	2559	D:\NXT Programok\Slave1.nxc
17	__LedRed_Spawner	2561	D:\NXT Programok\Slave1.nxc
18	__MotorAB_Returner	2564	D:\NXT Programok\Slave1.nxc
19	__MotorAB_Spawner	2566	D:\NXT Programok\Slave1.nxc
20	__MotorABInverse_Returner	2569	D:\NXT Programok\Slave1.nxc
21	__MotorABInverse_Spawner	2571	D:\NXT Programok\Slave1.nxc
22	__MotorA_Returner	2574	D:\NXT Programok\Slave1.nxc
23	__MotorA_Spawner	2576	D:\NXT Programok\Slave1.nxc
24	__MotorB_Returner	2579	D:\NXT Programok\Slave1.nxc
25	__MotorB_Spawner	2581	D:\NXT Programok\Slave1.nxc
26	__Drive_Returner	2584	D:\NXT Programok\Slave1.nxc
27	__Drive_Spawner	2586	D:\NXT Programok\Slave1.nxc
28	__initialize_global_data	2589	D:\NXT Programok\Slave1.nxc
